(dp0
S'LOFT'
p1
I2
sS'EXPLAIN'
p2
I1
sS'PRETEND'
p3
I3
sS'DELAY'
p4
I5
sS'DEMAND'
p5
I4
sS'BAKE'
p6
I6
sS'EFFORT'
p7
I0
sS'HIGHSCHOOL'
p8
I1
sS'RUMOR'
p9
I1
sS'SPY'
p10
I3
sS'GLARE'
p11
I1
sS'QUEST'
p12
I4
sS'JUNGLE'
p13
I10
sS'LASH'
p14
I2
sS'AGE'
p15
I0
sS'DISAPPEAR'
p16
I5
sS'CHAUFFEUR'
p17
I5
sS'PROUD'
p18
I0
sS'SUPPLY'
p19
I4
sS'CHEEK'
p20
I11
sS'HANG'
p21
I11
sS'HAND'
p22
I2
sS'PASSIVE'
p23
I0
sS'CHEER'
p24
I6
sS'MASCARA'
p25
I0
sS'BLONDE'
p26
I0
sS'PANTS'
p27
I11
sS'HYMN'
p28
I8
sS'ENVIRONMENT'
p29
I10
sS'WEALTH'
p30
I4
sS'RUIN'
p31
I5
sS'TELEPHONE'
p32
I1
sS'FRANCE'
p33
I3
sS'PERSON'
p34
I0
sS'EXPERIMENT'
p35
I1
sS'VALUES'
p36
I1
sS'VENT'
p37
I7
sS'DECAY'
p38
I5
sS'SWEATER'
p39
I11
sS'BEG'
p40
I4
sS'BED'
p41
I5
sS'BEE'
p42
I10
sS'ARCHITECT'
p43
I5
sS'TRASH'
p44
I6
sS'HYDROGEN'
p45
I7
sS'BET'
p46
I4
sS'SLAVE'
p47
I4
sS'PROBABILITY'
p48
I1
sS'GEOLOGY'
p49
I6
sS'BELONG'
p50
I4
sS'COMMON'
p51
I9
sS'PEDAL'
p52
I5
sS'TRUTHFUL'
p53
I3
sS'BIRD'
p54
I10
sS'TONE'
p55
I8
sS'SNIFF'
p56
I2
sS'GRAPH'
p57
I1
sS'PITCHFORK'
p58
I6
sS'PATIENCE'
p59
I0
sS'CRUEL'
p60
I0
sS'COVERED'
p61
I6
sS'CLARINET'
p62
I8
sS'OODLES'
p63
I9
sS'CHRISTIAN'
p64
I0
sS'VITAMIN'
p65
I6
sS'FRUSTRATE'
p66
I0
sS'WOODS'
p67
I10
sS'SPOIL'
p68
I6
sS'NOT'
p69
I1
sS'BOUNDARY'
p70
I5
sS'NOW'
p71
I5
sS'LAWSUIT'
p72
I3
sS'PILLOW'
p73
I5
sS'SWEETHEART'
p74
I0
sS'INSTANT'
p75
I5
sS'MEXICO'
p76
I10
sS'ALLEGIANCE'
p77
I3
sS'PREACHER'
p78
I0
sS'TREASON'
p79
I3
sS'STARBOARD'
p80
I7
sS'TRIBUTE'
p81
I4
sS'REFUSE'
p82
I0
sS'TASK'
p83
I4
sS'DROP'
p84
I4
sS'VACANCY'
p85
I5
sS'PECAN'
p86
I6
sS'TABLE'
p87
I5
sS'IMMATURE'
p88
I0
sS'WHY'
p89
I1
sS'KITCHEN'
p90
I6
sS'SHEPHERD'
p91
I0
sS'DIFFERENT'
p92
I9
sS'SNACK'
p93
I6
sS'AVERAGE'
p94
I9
sS'ATTIRE'
p95
I11
sS'UNITE'
p96
I11
sS'ELEMENT'
p97
I7
sS'VIOLA'
p98
I8
sS'SOFTBALL'
p99
I8
sS'WANDER'
p100
I4
sS'TIMBER'
p101
I2
sS'FLAP'
p102
I11
sS'EARLY'
p103
I5
sS'CONDOM'
p104
I0
sS'WAVES'
p105
I7
sS'NOTICE'
p106
I1
sS'ANIMALS'
p107
I10
sS'ELECTRIC'
p108
I5
sS'PEEL'
p109
I6
sS'MOTH'
p110
I10
sS'INTELLIGENCE'
p111
I1
sS'CONFESS'
p112
I3
sS'DISAGREEMENT'
p113
I0
sS'UNFAIR'
p114
I3
sS'DAYS'
p115
I5
sS'SINGLE'
p116
I0
sS'CATTLE'
p117
I10
sS'PEER'
p118
I7
sS'PEANUTS'
p119
I6
sS'EMPEROR'
p120
I3
sS'ORCHARD'
p121
I6
sS'NATURE'
p122
I10
sS'COMPETITION'
p123
I8
sS'NEWSSTAND'
p124
I1
sS'PASTA'
p125
I6
sS'SURGERY'
p126
I2
sS'PASTE'
p127
I6
sS'PILOT'
p128
I5
sS'A'
p129
I1
sS'HEAD'
p130
I2
sS'UMBRELLA'
p131
I7
sS'MORALS'
p132
I0
sS'JOYOUS'
p133
I0
sS'CROPS'
p134
I6
sS'HEAL'
p135
I2
sS'HEAT'
p136
I7
sS'MUSIC'
p137
I8
sS'FOUND'
p138
I4
sS'FEATHER'
p139
I10
sS'WAFFLES'
p140
I6
sS'DRESSER'
p141
I5
sS'TASTE'
p142
I6
sS'LOOSE'
p143
I11
sS'SALES'
p144
I4
sS'CLOTH'
p145
I11
sS'TASTY'
p146
I6
sS'LAGOON'
p147
I7
sS'STERN'
p148
I0
sS'HIM'
p149
I0
sS'SKILL'
p150
I1
sS'CARTOON'
p151
I1
sS'UNUSUAL'
p152
I9
sS'RAPID'
p153
I5
sS'LIFESTYLE'
p154
I2
sS'JOBLESS'
p155
I4
sS'PEOPLE'
p156
I9
sS'MONTHLY'
p157
I5
sS'LIMIT'
p158
I9
sS'EINSTEIN'
p159
I1
sS'MULTIPLY'
p160
I9
sS'CURTAIN'
p161
I5
sS'TRUE'
p162
I3
sS'ECONOMY'
p163
I4
sS'SHOWER'
p164
I7
sS'RELY'
p165
I0
sS'OVERWHELM'
p166
I0
sS'JOY'
p167
I0
sS'PRO'
p168
I8
sS'INFLUENCE'
p169
I2
sS'JOB'
p170
I4
sS'JOG'
p171
I2
sS'MANUFACTURE'
p172
I4
sS'IDIOT'
p173
I0
sS'MINER'
p174
I0
sS'WEDNESDAY'
p175
I5
sS'LIGHTNING'
p176
I5
sS'HIGH'
p177
I5
sS'KEEPER'
p178
I4
sS'ISSUE'
p179
I1
sS'TROUT'
p180
I7
sS'SONIC'
p181
I8
sS'SADDLE'
p182
I10
sS'COOLER'
p183
I7
sS'DECISION'
p184
I1
sS'MONTH'
p185
I5
sS'HONEY'
p186
I6
sS'CHIRP'
p187
I8
sS'STICK'
p188
I2
sS'ADDRESS'
p189
I3
sS'SNAP'
p190
I5
sS'ORDINARY'
p191
I9
sS'INJURY'
p192
I2
sS'APART'
p193
I11
sS'ANNUAL'
p194
I5
sS'SNORE'
p195
I5
sS'ZEST'
p196
I7
sS'ALLIGATOR'
p197
I7
sS'CORPORATION'
p198
I4
sS'REDUCE'
p199
I9
sS'DISCOVER'
p200
I1
sS'HIVE'
p201
I10
sS'PROFIT'
p202
I4
sS'DOLPHIN'
p203
I7
sS'MEASUREMENT'
p204
I9
sS'THERAPY'
p205
I2
sS'MUSTACHE'
p206
I0
sS'INTOXICATE'
p207
I6
sS'CHEESE'
p208
I6
sS'PERMISSION'
p209
I3
sS'MEDIA'
p210
I1
sS'SCARED'
p211
I0
sS'PUNCTUATION'
p212
I1
sS'YOUTH'
p213
I0
sS'RODEO'
p214
I10
sS'SUFFOCATE'
p215
I7
sS'SHADE'
p216
I5
sS'WAREHOUSE'
p217
I4
sS'TWILIGHT'
p218
I5
sS'HIGHWAY'
p219
I5
sS'LOVERS'
p220
I0
sS'ANYTHING'
p221
I9
sS'CERAMIC'
p222
I6
sS'GLASS'
p223
I6
sS'SALOON'
p224
I6
sS'SANDALS'
p225
I11
sS'STICKY'
p226
I6
sS'SILLY'
p227
I0
sS'ATOMIC'
p228
I8
sS'FITNESS'
p229
I2
sS'SQUEAK'
p230
I8
sS'HIGHLIGHT'
p231
I11
sS'MIGHT'
p232
I1
sS'STAPLE'
p233
I11
sS'SQUEAL'
p234
I10
sS'TRENCH'
p235
I6
sS'LANE'
p236
I5
sS'LAND'
p237
I6
sS'MUSTARD'
p238
I6
sS'OUTSTANDING'
p239
I9
sS'HAYSTACK'
p240
I6
sS'CLICK'
p241
I8
sS'TRIM'
p242
I2
sS'BUMP'
p243
I2
sS'VETERAN'
p244
I3
sS'WEIGH'
p245
I9
sS'MEDIOCRE'
p246
I9
sS'PIECE'
p247
I9
sS'TRIP'
p248
I4
sS'VEIN'
p249
I2
sS'SPAN'
p250
I1
sS'SOCK'
p251
I11
sS'GRACE'
p252
I0
sS'TWIST'
p253
I5
sS'SIBLING'
p254
I0
sS'AWFUL'
p255
I6
sS'BLINDS'
p256
I5
sS'SPEED'
p257
I5
sS'PENCIL'
p258
I11
sS'DEGREE'
p259
I4
sS'TOASTER'
p260
I6
sS'FINISHED'
p261
I1
sS'CARBON'
p262
I7
sS'ARTERY'
p263
I2
sS'SCENERY'
p264
I8
sS'POT'
p265
I6
sS'NEVER'
p266
I9
sS'LEOPARD'
p267
I10
sS'SIDING'
p268
I4
sS'PRIVATE'
p269
I1
sS'GLACIER'
p270
I7
sS'RACE'
p271
I2
sS'LOBSTER'
p272
I6
sS'COMPONENTS'
p273
I1
sS'RACK'
p274
I11
sS'CLOUD'
p275
I7
sS'STRING'
p276
I11
sS'LEND'
p277
I4
sS'LEGAL'
p278
I3
sS'LENS'
p279
I1
sS'GYMNASTICS'
p280
I2
sS'TESTTUBE'
p281
I1
sS'TEPEE'
p282
I10
sS'HALLOWEEN'
p283
I3
sS'CREATIVE'
p284
I1
sS'PINT'
p285
I9
sS'SLITHER'
p286
I10
sS'FACT'
p287
I1
sS'TART'
p288
I6
sS'CHEW'
p289
I6
sS'ATMOSPHERE'
p290
I5
sS'MINORITY'
p291
I9
sS'OBJECT'
p292
I1
sS'PATCH'
p293
I11
sS'CHEF'
p294
I6
sS'PLIERS'
p295
I5
sS'SORRY'
p296
I0
sS'OBLIGATION'
p297
I4
sS'STANDING'
p298
I5
sS'BRISK'
p299
I5
sS'REINDEER'
p300
I10
sS'LIVE'
p301
I2
sS'TEACH'
p302
I1
sS'PRIZE'
p303
I4
sS'HELPER'
p304
I4
sS'COOKING'
p305
I6
sS'SUPER'
p306
I9
sS'COIN'
p307
I4
sS'WHERE'
p308
I1
sS'IRRITATING'
p309
I0
sS'GLOW'
p310
I5
sS'DELINQUENT'
p311
I0
sS'SEND'
p312
I4
sS'ILLUSION'
p313
I1
sS'ABUSE'
p314
I2
sS'CAPTURE'
p315
I4
sS'FILTH'
p316
I6
sS'COCKTAIL'
p317
I6
sS'VARIETY'
p318
I9
sS'BENCH'
p319
I5
sS'FREEWAY'
p320
I5
sS'DECREASE'
p321
I5
sS'OPINION'
p322
I1
sS'BROCCOLI'
p323
I6
sS'STRESS'
p324
I0
sS'FLESH'
p325
I2
sS'DISTINCT'
p326
I1
sS'UNIVERSE'
p327
I5
sS'POUR'
p328
I7
sS'RIFLE'
p329
I2
sS'PAINTING'
p330
I1
sS'THORN'
p331
I2
sS'NICKEL'
p332
I4
sS'HALT'
p333
I5
sS'SUGAR'
p334
I6
sS'ROSES'
p335
I0
sS'THEME'
p336
I1
sS'HALF'
p337
I9
sS'TERMS'
p338
I1
sS'BREEZEWAY'
p339
I5
sS'HALL'
p340
I5
sS'HALO'
p341
I0
sS'PLUTO'
p342
I5
sS'CLOSET'
p343
I5
sS'JOKE'
p344
I0
sS'HINT'
p345
I1
sS'GUILTY'
p346
I3
sS'DRYER'
p347
I7
sS'COMPLICATED'
p348
I0
sS'CLOSED'
p349
I5
sS'FACTOR'
p350
I1
sS'STRIKE'
p351
I8
sS'PERISH'
p352
I5
sS'SEAFOOD'
p353
I6
sS'UNDER'
p354
I5
sS'COMMERCIAL'
p355
I4
sS'CHAOS'
p356
I7
sS'WRITING'
p357
I1
sS'POSSUM'
p358
I10
sS'ROBBERY'
p359
I3
sS'BULL'
p360
I10
sS'OVAL'
p361
I5
sS'BULB'
p362
I5
sS'ROBBER'
p363
I3
sS'PERSONALITY'
p364
I0
sS'MONDAY'
p365
I5
sS'CHUNK'
p366
I6
sS'GOVERNOR'
p367
I3
sS'DUCKS'
p368
I7
sS'INFLATION'
p369
I4
sS'DUTY'
p370
I4
sS'ALL'
p371
I9
sS'FLAKE'
p372
I6
sS'ZERO'
p373
I9
sS'TOOTH'
p374
I2
sS'NAME'
p375
I0
sS'CERTAIN'
p376
I1
sS'BLANKET'
p377
I11
sS'BOWL'
p378
I6
sS'DEPTH'
p379
I7
sS'TREES'
p380
I10
sS'PUSHY'
p381
I0
sS'APPEAL'
p382
I0
sS'TRIGONOMETRY'
p383
I1
sS'LOG'
p384
I2
sS'DANCER'
p385
I8
sS'SPEAKER'
p386
I8
sS'ELECTION'
p387
I3
sS'LOT'
p388
I9
sS'ACCUMULATE'
p389
I4
sS'REPTILE'
p390
I7
sS'STUMP'
p391
I1
sS'DWARF'
p392
I9
sS'SERPENT'
p393
I3
sS'CREATE'
p394
I1
sS'INFORM'
p395
I1
sS'PERISCOPE'
p396
I1
sS'DOZE'
p397
I5
sS'OREGANO'
p398
I6
sS'UNNATURAL'
p399
I9
sS'ARIGHT'
p400
I3
sS'EFFECT'
p401
I1
sS'NATION'
p402
I3
sS'BILLBOARD'
p403
I1
sS'FEMALE'
p404
I0
sS'CRISIS'
p405
I0
sS'TENDENCY'
p406
I9
sS'LAMB'
p407
I10
sS'VIOLATION'
p408
I3
sS'CELERY'
p409
I6
sS'MISSES'
p410
I0
sS'BIAS'
p411
I3
sS'COCKY'
p412
I0
sS'FLOWERS'
p413
I6
sS'DRY'
p414
I7
sS'CLOVE'
p415
I6
sS'THAW'
p416
I7
sS'MOVE'
p417
I5
sS'ELECTRON'
p418
I1
sS'STEPS'
p419
I5
sS'CONE'
p420
I5
sS'DIAMETER'
p421
I5
sS'THAN'
p422
I9
sS'CREATOR'
p423
I11
sS'SWEET'
p424
I6
sS'SNEAK'
p425
I3
sS'SPECIFIC'
p426
I1
sS'IRON'
p427
I4
sS'COCAINE'
p428
I2
sS'WORTHLESS'
p429
I4
sS'STAPLER'
p430
I11
sS'EXPLORER'
p431
I7
sS'STARCH'
p432
I6
sS'BAKER'
p433
I6
sS'NEEDLE'
p434
I2
sS'REQUEST'
p435
I1
sS'EVIL'
p436
I3
sS'QUIET'
p437
I8
sS'CRITIC'
p438
I1
sS'KISS'
p439
I0
sS'SERIAL'
p440
I3
sS'BAKED'
p441
I6
sS'LASTING'
p442
I0
sS'LIVING'
p443
I2
sS'STITCH'
p444
I11
sS'OATS'
p445
I6
sS'ELF'
p446
I9
sS'SENTRY'
p447
I3
sS'INMATE'
p448
I3
sS'LIVER'
p449
I6
sS'NEST'
p450
I10
sS'OATH'
p451
I3
sS'PAYMENT'
p452
I4
sS'SURF'
p453
I7
sS'URGE'
p454
I4
sS'DOMAIN'
p455
I1
sS'SURE'
p456
I1
sS'DESCENT'
p457
I5
sS'ASSIGNMENT'
p458
I1
sS'PRINCIPLE'
p459
I1
sS'THEATER'
p460
I8
sS'APATHETIC'
p461
I0
sS'ANNIHILATE'
p462
I5
sS'TOUCHY'
p463
I0
sS'NAPKIN'
p464
I6
sS'INDOORS'
p465
I5
sS'AUNT'
p466
I0
sS'ZEBRA'
p467
I10
sS'ADJOURN'
p468
I4
sS'SCRAMBLE'
p469
I6
sS'INFORMATION'
p470
I1
sS'REPEAT'
p471
I1
sS'CONTAINER'
p472
I6
sS'REVIVAL'
p473
I0
sS'JAZZ'
p474
I8
sS'ARTS'
p475
I8
sS'CANARY'
p476
I8
sS'ANKLE'
p477
I2
sS'CAPE'
p478
I11
sS'SIZE'
p479
I9
sS'DIAMOND'
p480
I11
sS'REMOVER'
p481
I11
sS'WOOD'
p482
I2
sS'CROSSING'
p483
I5
sS'WOOL'
p484
I11
sS'CHIPS'
p485
I6
sS'COFFIN'
p486
I2
sS'MATH'
p487
I1
sS'SUE'
p488
I3
sS'WHO'
p489
I1
sS'SUB'
p490
I7
sS'PUNISH'
p491
I3
sS'SUM'
p492
I9
sS'SACK'
p493
I4
sS'MOTORCYCLE'
p494
I5
sS'GRASP'
p495
I4
sS'HALLUCINATION'
p496
I1
sS'GRASS'
p497
I6
sS'OCCUPATION'
p498
I4
sS'MEMBER'
p499
I0
sS'MEMORIAL'
p500
I2
sS'HANDKERCHIEF'
p501
I0
sS'TEN'
p502
I9
sS'TEA'
p503
I6
sS'CASHEW'
p504
I6
sS'HAUNT'
p505
I3
sS'VILLAIN'
p506
I3
sS'STUPID'
p507
I0
sS'DIARY'
p508
I1
sS'TYLENOL'
p509
I2
sS'SWATTER'
p510
I10
sS'METICULOUS'
p511
I1
sS'CORD'
p512
I5
sS'CORE'
p513
I6
sS'SLAY'
p514
I2
sS'CORN'
p515
I6
sS'SLAP'
p516
I2
sS'CORK'
p517
I6
sS'DEPLETION'
p518
I9
sS'ADMIT'
p519
I3
sS'RENT'
p520
I4
sS'BLEACH'
p521
I7
sS'FRESH'
p522
I6
sS'LEMON'
p523
I6
sS'FIGHT'
p524
I0
sS'SLAB'
p525
I5
sS'HELLO'
p526
I4
sS'KIDNEY'
p527
I7
sS'CRAMP'
p528
I2
sS'DOCUMENT'
p529
I1
sS'LIEUTENANT'
p530
I3
sS'BUGGY'
p531
I5
sS'DEMOCRAT'
p532
I3
sS'SAFETY'
p533
I3
sS'BRITTLE'
p534
I0
sS'RECKLESS'
p535
I0
sS'CALCULUS'
p536
I1
sS'YEARLY'
p537
I5
sS'DUNGEON'
p538
I3
sS'MEDICAL'
p539
I2
sS'YOUNG'
p540
I0
sS'DISC'
p541
I8
sS'NIECE'
p542
I0
sS'LOGIC'
p543
I1
sS'DISH'
p544
I6
sS'PRICELESS'
p545
I4
sS'CASUAL'
p546
I11
sS'VASELINE'
p547
I6
sS'WIRE'
p548
I5
sS'ANGEL'
p549
I0
sS'FLUTE'
p550
I8
sS'BRAVADO'
p551
I0
sS'ROTTEN'
p552
I6
sS'GIRAFFE'
p553
I10
sS'BLOCK'
p554
I5
sS'ANGER'
p555
I0
sS'EAR'
p556
I8
sS'DIVE'
p557
I7
sS'HOG'
p558
I6
sS'HOE'
p559
I6
sS'MILDEW'
p560
I6
sS'HALLWAY'
p561
I5
sS'RATTLE'
p562
I0
sS'HEIGHTS'
p563
I0
sS'CHALK'
p564
I11
sS'HOW'
p565
I1
sS'HOT'
p566
I7
sS'POTENTIAL'
p567
I1
sS'HOP'
p568
I5
sS'BANK'
p569
I4
sS'NYLONS'
p570
I11
sS'DEBATE'
p571
I1
sS'RECLINER'
p572
I5
sS'TROT'
p573
I10
sS'SOAK'
p574
I7
sS'HARLEY'
p575
I5
sS'SLURP'
p576
I6
sS'GROCERIES'
p577
I4
sS'ULCER'
p578
I2
sS'CATHEDRAL'
p579
I0
sS'SOAP'
p580
I7
sS'SOAR'
p581
I2
sS'CELLAR'
p582
I5
sS'DEVELOP'
p583
I1
sS'KITE'
p584
I10
sS'SIMPLE'
p585
I0
sS'TEXT'
p586
I1
sS'ORIGINATE'
p587
I1
sS'WIDTH'
p588
I9
sS'BURGLAR'
p589
I3
sS'BEACH'
p590
I7
sS'SISTER'
p591
I0
sS'CROWD'
p592
I8
sS'SHAME'
p593
I0
sS'COWGIRL'
p594
I10
sS'CROWN'
p595
I3
sS'CONCRETE'
p596
I5
sS'BIKE'
p597
I5
sS'WRENCH'
p598
I5
sS'DEPARTMENT'
p599
I4
sS'PUFF'
p600
I7
sS'WEEK'
p601
I5
sS'SAYING'
p602
I1
sS'VAN'
p603
I5
sS'FIT'
p604
I2
sS'SENTENCE'
p605
I1
sS'FIX'
p606
I5
sS'FOAM'
p607
I7
sS'FEELINGS'
p608
I0
sS'FIB'
p609
I3
sS'FIG'
p610
I6
sS'STADIUM'
p611
I8
sS'THERMOMETER'
p612
I7
sS'WEEP'
p613
I0
sS'FIN'
p614
I7
sS'PLATE'
p615
I6
sS'ATTENDANCE'
p616
I4
sS'PROCESS'
p617
I1
sS'RELIGIOUS'
p618
I0
sS'CREASE'
p619
I11
sS'TAPE'
p620
I8
sS'USURP'
p621
I4
sS'BUMPER'
p622
I5
sS'CLAIMS'
p623
I4
sS'MAPLE'
p624
I6
sS'RIDDLE'
p625
I0
sS'CAMPING'
p626
I10
sS'ADVICE'
p627
I1
sS'PLASTIC'
p628
I4
sS'AHOY'
p629
I7
sS'INSTRUCTIONS'
p630
I1
sS'CHEMICAL'
p631
I7
sS'UNEVEN'
p632
I5
sS'HIDE'
p633
I3
sS'RADIATOR'
p634
I7
sS'JEEP'
p635
I7
sS'MUSSEL'
p636
I6
sS'WOLF'
p637
I10
sS'PAINTER'
p638
I11
sS'PENGUIN'
p639
I7
sS'MYSTERY'
p640
I1
sS'DECLINE'
p641
I5
sS'YUCK'
p642
I6
sS'OUTLINE'
p643
I1
sS'UNION'
p644
I4
sS'HATCHET'
p645
I2
sS'SWOON'
p646
I0
sS'AFRICA'
p647
I10
sS'CLOWN'
p648
I0
sS'FLAG'
p649
I3
sS'BUSY'
p650
I5
sS'NOTIFY'
p651
I1
sS'COOK'
p652
I6
sS'SCRUB'
p653
I7
sS'CONSTRUCTIVE'
p654
I5
sS'COOL'
p655
I7
sS'ME'
p656
I0
sS'BLOT'
p657
I11
sS'LIVINGROOM'
p658
I5
sS'RECALL'
p659
I1
sS'TERMITE'
p660
I10
sS'WOODWIND'
p661
I8
sS'RECEPTIONIST'
p662
I4
sS'SWIM'
p663
I7
sS'DISASTER'
p664
I7
sS'READ'
p665
I1
sS'FRAGILE'
p666
I0
sS'EXCEL'
p667
I4
sS'DOG'
p668
I10
sS'DOE'
p669
I10
sS'SHACK'
p670
I3
sS'COST'
p671
I4
sS'THESIS'
p672
I1
sS'FOLLOW'
p673
I4
sS'WASTED'
p674
I6
sS'SUITE'
p675
I4
sS'REAP'
p676
I4
sS'REAR'
p677
I1
sS'DETERIORATE'
p678
I5
sS'PLANTS'
p679
I6
sS'DEFINITION'
p680
I1
sS'LATIN'
p681
I3
sS'LIGHTHEADED'
p682
I2
sS'MAGNIFY'
p683
I1
sS'UTENSIL'
p684
I6
sS'EXECUTIVE'
p685
I4
sS'GUIDE'
p686
I1
sS'HISPANIC'
p687
I3
sS'SPRAY'
p688
I7
sS'ORANGE'
p689
I6
sS'CRANE'
p690
I4
sS'AMERICA'
p691
I3
sS'AGGRAVATE'
p692
I0
sS'PRETTY'
p693
I0
sS'STIFF'
p694
I0
sS'VINE'
p695
I6
sS'AUTUMN'
p696
I7
sS'MIXTURE'
p697
I6
sS'COBWEB'
p698
I5
sS'FRANKENSTEIN'
p699
I3
sS'SOCKET'
p700
I5
sS'PUN'
p701
I0
sS'JOIN'
p702
I11
sS'PERSONAL'
p703
I1
sS'PUB'
p704
I6
sS'PAVEMENT'
p705
I5
sS'PUT'
p706
I4
sS'CURTAINS'
p707
I5
sS'BAT'
p708
I10
sS'DECEPTION'
p709
I3
sS'RELATIONSHIP'
p710
I0
sS'DESCRIBE'
p711
I1
sS'BAY'
p712
I7
sS'BAG'
p713
I4
sS'BAD'
p714
I3
sS'TRUCK'
p715
I4
sS'BAN'
p716
I3
sS'HOBBY'
p717
I8
sS'TRUCE'
p718
I0
sS'JUDGMENT'
p719
I3
sS'RISK'
p720
I0
sS'SOFA'
p721
I5
sS'VACATION'
p722
I4
sS'SECOND'
p723
I5
sS'PRISON'
p724
I3
sS'MOUSE'
p725
I10
sS'LOVING'
p726
I0
sS'GODDESS'
p727
I0
sS'DEVIL'
p728
I0
sS'HAPPENING'
p729
I1
sS'SOUTHERN'
p730
I6
sS'AGAINST'
p731
I3
sS'PLAYER'
p732
I8
sS'COMPUTER'
p733
I1
sS'FLAME'
p734
I7
sS'STY'
p735
I2
sS'SHUTTER'
p736
I7
sS'DRUNK'
p737
I6
sS'THANKSGIVING'
p738
I6
sS'COMPREHEND'
p739
I1
sS'GOLF'
p740
I8
sS'DISORDER'
p741
I2
sS'LID'
p742
I6
sS'LIE'
p743
I3
sS'ATTEMPT'
p744
I4
sS'SEPARATE'
p745
I11
sS'PASS'
p746
I4
sS'ROYAL'
p747
I3
sS'LIT'
p748
I5
sS'JAM'
p749
I6
sS'LIP'
p750
I11
sS'DUSTPAN'
p751
I7
sS'ROUTINE'
p752
I9
sS'ONE'
p753
I9
sS'VAPOR'
p754
I7
sS'PREPARE'
p755
I1
sS'FADE'
p756
I5
sS'GAVEL'
p757
I5
sS'NAVIGATOR'
p758
I7
sS'SOCCER'
p759
I8
sS'APARTMENT'
p760
I4
sS'BASS'
p761
I8
sS'DIRT'
p762
I6
sS'ENERGY'
p763
I5
sS'TECHNIQUE'
p764
I1
sS'SLEEPY'
p765
I5
sS'BASE'
p766
I3
sS'EDITORIAL'
p767
I1
sS'PIER'
p768
I7
sS'WISE'
p769
I1
sS'EMERGENCY'
p770
I5
sS'UNLOAD'
p771
I4
sS'WISH'
p772
I0
sS'COPIER'
p773
I1
sS'LAKE'
p774
I7
sS'LUBRICATE'
p775
I6
sS'TICKLE'
p776
I0
sS'REGULAR'
p777
I9
sS'OLYMPICS'
p778
I8
sS'FRACTURE'
p779
I2
sS'CLIFF'
p780
I5
sS'DINE'
p781
I6
sS'NEIGHBORHOOD'
p782
I3
sS'ALCOHOL'
p783
I6
sS'SALAD'
p784
I6
sS'GALLOP'
p785
I10
sS'COUNTRY'
p786
I3
sS'COLT'
p787
I10
sS'SOMETIMES'
p788
I9
sS'PEAR'
p789
I6
sS'UNDERWEAR'
p790
I11
sS'DISGUISE'
p791
I3
sS'PEAK'
p792
I5
sS'DIMINISH'
p793
I5
sS'BURGLARY'
p794
I3
sS'GALLON'
p795
I9
sS'COLD'
p796
I7
sS'RING'
p797
I11
sS'NEUTRON'
p798
I1
sS'POPULATION'
p799
I9
sS'PELICAN'
p800
I7
sS'MARCH'
p801
I3
sS'SAILING'
p802
I7
sS'SLING'
p803
I2
sS'OPEN'
p804
I5
sS'JESUS'
p805
I0
sS'KEYS'
p806
I5
sS'FINGER'
p807
I2
sS'HINDSIGHT'
p808
I1
sS'SCREAM'
p809
I8
sS'FUNCTION'
p810
I1
sS'CONFESSION'
p811
I3
sS'MEDIEVAL'
p812
I3
sS'GOURMET'
p813
I6
sS'LAWN'
p814
I6
sS'AMAZE'
p815
I0
sS'NOTEBOOK'
p816
I1
sS'ADJUSTMENT'
p817
I5
sS'NERVE'
p818
I1
sS'MICROPHONE'
p819
I8
sS'TACTFUL'
p820
I0
sS'TABLET'
p821
I2
sS'AGREEMENT'
p822
I0
sS'HEAR'
p823
I8
sS'YELL'
p824
I8
sS'HAVEN'
p825
I10
sS'FROST'
p826
I7
sS'QUENCH'
p827
I6
sS'UNKNOWN'
p828
I1
sS'SWING'
p829
I0
sS'PORTRAIT'
p830
I0
sS'PITCHER'
p831
I8
sS'MISSION'
p832
I4
sS'AGENT'
p833
I3
sS'WATERFALL'
p834
I7
sS'LOOKS'
p835
I0
sS'WORLD'
p836
I3
sS'WARMTH'
p837
I7
sS'PANTYHOSE'
p838
I11
sS'YOU'
p839
I0
sS'SEATBELT'
p840
I11
sS'PASSOUT'
p841
I6
sS'TUMBLE'
p842
I2
sS'EXTREMITY'
p843
I2
sS'ACCURATE'
p844
I1
sS'PROFESSION'
p845
I4
sS'CART'
p846
I5
sS'CATCH'
p847
I4
sS'SONNET'
p848
I1
sS'LETTER'
p849
I1
sS'GRACEFUL'
p850
I8
sS'FRY'
p851
I6
sS'SMELL'
p852
I6
sS'NERD'
p853
I1
sS'CARD'
p854
I4
sS'CARE'
p855
I0
sS'JUSTIFY'
p856
I3
sS'TORNADO'
p857
I7
sS'HIKE'
p858
I10
sS'LIST'
p859
I1
sS'BEVERAGE'
p860
I6
sS'CHINA'
p861
I6
sS'BRANCH'
p862
I6
sS'MAZE'
p863
I1
sS'HARVEST'
p864
I6
sS'DISCUSS'
p865
I1
sS'EUROPE'
p866
I3
sS'DO'
p867
I1
sS'SALMON'
p868
I7
sS'TOES'
p869
I2
sS'FLIGHT'
p870
I10
sS'SHIFT'
p871
I5
sS'BARGAIN'
p872
I4
sS'YELLOW'
p873
I11
sS'SCAPEGOAT'
p874
I3
sS'LAWFUL'
p875
I3
sS'GYM'
p876
I2
sS'APATHY'
p877
I0
sS'ELEPHANT'
p878
I10
sS'SMOKING'
p879
I7
sS'GHETTO'
p880
I3
sS'VINEGAR'
p881
I6
sS'RULE'
p882
I1
sS'BLESSING'
p883
I0
sS'ARGUMENT'
p884
I0
sS'TIMES'
p885
I5
sS'POCKET'
p886
I11
sS'TEETH'
p887
I2
sS'SERIOUS'
p888
I0
sS'COPY'
p889
I1
sS'STRAND'
p890
I11
sS'ZONE'
p891
I5
sS'CORPSE'
p892
I2
sS'PADDLE'
p893
I7
sS'SURROUNDINGS'
p894
I10
sS'CARRIAGE'
p895
I5
sS'SKATE'
p896
I7
sS'ADULT'
p897
I0
sS'GEAR'
p898
I5
sS'OBOE'
p899
I8
sS'ADDICT'
p900
I2
sS'LAWYER'
p901
I3
sS'BARK'
p902
I10
sS'ANNOYING'
p903
I0
sS'BARN'
p904
I6
sS'CRASH'
p905
I5
sS'FRAME'
p906
I1
sS'RIP'
p907
I11
sS'PRINCESS'
p908
I3
sS'REMAIN'
p909
I4
sS'RIM'
p910
I5
sS'SAPPHIRE'
p911
I11
sS'DRESSING'
p912
I6
sS'RIB'
p913
I6
sS'MOVEMENT'
p914
I5
sS'SAUSAGE'
p915
I6
sS'HAM'
p916
I6
sS'WEAKNESS'
p917
I0
sS'RISE'
p918
I5
sS'DECORATION'
p919
I6
sS'HAY'
p920
I6
sS'POWDER'
p921
I0
sS'HAT'
p922
I11
sS'ROOT'
p923
I6
sS'GATHER'
p924
I4
sS'CEMETERY'
p925
I2
sS'ADMIRE'
p926
I0
sS'CULTURE'
p927
I3
sS'PLAYDOUGH'
p928
I11
sS'REMORSE'
p929
I0
sS'YES'
p930
I1
sS'COUGH'
p931
I2
sS'ARENA'
p932
I8
sS'DWARVES'
p933
I9
sS'HELP'
p934
I4
sS'TOBACCO'
p935
I7
sS'FURRY'
p936
I10
sS'NOTES'
p937
I1
sS'DESIGN'
p938
I1
sS'BOARD'
p939
I7
sS'HELL'
p940
I3
sS'WASTE'
p941
I6
sS'MINERAL'
p942
I6
sS'POLITICIAN'
p943
I3
sS'AHEAD'
p944
I4
sS'DEPENDENT'
p945
I0
sS'DISINTEGRATE'
p946
I5
sS'CLUB'
p947
I0
sS'LIGHTER'
p948
I7
sS'CARRY'
p949
I4
sS'WALRUS'
p950
I7
sS'FOOL'
p951
I0
sS'DIVIDE'
p952
I9
sS'FOR'
p953
I0
sS'FOOD'
p954
I6
sS'SHINGLE'
p955
I5
sS'FOX'
p956
I10
sS'CLUE'
p957
I1
sS'GENTLE'
p958
I0
sS'MAGNITUDE'
p959
I9
sS'PASTRY'
p960
I6
sS'TOYS'
p961
I4
sS'FOOT'
p962
I2
sS'WHOLE'
p963
I9
sS'FOE'
p964
I10
sS'GULL'
p965
I7
sS'SURFACE'
p966
I0
sS'GULP'
p967
I6
sS'ICECREAM'
p968
I6
sS'FOG'
p969
I7
sS'TEACHER'
p970
I1
sS'JAWS'
p971
I7
sS'CHIP'
p972
I6
sS'NEWTON'
p973
I1
sS'EXCUSE'
p974
I1
sS'ANXIETY'
p975
I0
sS'DRILL'
p976
I2
sS'BARTENDER'
p977
I6
sS'ABDUCT'
p978
I4
sS'PHYSICS'
p979
I1
sS'RECENT'
p980
I5
sS'KINGDOM'
p981
I3
sS'TONIC'
p982
I6
sS'MUTTON'
p983
I6
sS'REGISTER'
p984
I4
sS'XEROX'
p985
I1
sS'BETTER'
p986
I9
sS'CAST'
p987
I2
sS'ATTRACTIVE'
p988
I0
sS'MANSION'
p989
I4
sS'BURNT'
p990
I6
sS'DUNK'
p991
I7
sS'DINER'
p992
I6
sS'DIME'
p993
I4
sS'MAKEUP'
p994
I0
sS'SICKLE'
p995
I6
sS'DUNE'
p996
I7
sS'FIELD'
p997
I6
sS'ABSENCE'
p998
I1
sS'COMA'
p999
I1
sS'VANISH'
p1000
I5
sS'COME'
p1001
I4
sS'DISCIPLINE'
p1002
I1
sS'PLOT'
p1003
I1
sS'PLOW'
p1004
I6
sS'RUN'
p1005
I5
sS'MORTGAGE'
p1006
I4
sS'RUM'
p1007
I6
sS'RUB'
p1008
I2
sS'JEALOUSY'
p1009
I0
sS'RUG'
p1010
I7
sS'SURGEON'
p1011
I2
sS'HOUND'
p1012
I10
sS'PUTDOWN'
p1013
I0
sS'CLAW'
p1014
I2
sS'FEED'
p1015
I6
sS'DIM'
p1016
I5
sS'PRIMATE'
p1017
I10
sS'FEEL'
p1018
I2
sS'DIE'
p1019
I2
sS'DIG'
p1020
I6
sS'GIRLS'
p1021
I0
sS'FEET'
p1022
I11
sS'THIMBLE'
p1023
I2
sS'DIP'
p1024
I6
sS'PROOF'
p1025
I1
sS'CONTROL'
p1026
I4
sS'SNEAKER'
p1027
I11
sS'POLICE'
p1028
I3
sS'KETTLE'
p1029
I6
sS'MUNCH'
p1030
I6
sS'HOURS'
p1031
I5
sS'CAPTIVE'
p1032
I3
sS'BOXER'
p1033
I2
sS'REPUBLIC'
p1034
I3
sS'POLICY'
p1035
I3
sS'CONFLICT'
p1036
I0
sS'THUMB'
p1037
I2
sS'PANCAKES'
p1038
I6
sS'MAYBE'
p1039
I1
sS'ANTIDOTE'
p1040
I2
sS'CAPITAL'
p1041
I3
sS'PASSENGER'
p1042
I5
sS'SHOES'
p1043
I11
sS'CAMEL'
p1044
I7
sS'NUTS'
p1045
I6
sS'CELSIUS'
p1046
I7
sS'COMPLIMENT'
p1047
I0
sS'BOX'
p1048
I8
sS'BOY'
p1049
I0
sS'TREAD'
p1050
I7
sS'ASHTRAY'
p1051
I7
sS'PERCENT'
p1052
I4
sS'OVER'
p1053
I5
sS'BOW'
p1054
I11
sS'SCOOP'
p1055
I6
sS'CHEST'
p1056
I0
sS'CHESS'
p1057
I1
sS'OVEN'
p1058
I6
sS'GLANCE'
p1059
I1
sS'FEEBLE'
p1060
I0
sS'BOG'
p1061
I6
sS'CUSTOM'
p1062
I3
sS'COSTUME'
p1063
I11
sS'ASHAMED'
p1064
I0
sS'SODA'
p1065
I6
sS'WALKER'
p1066
I0
sS'ELABORATE'
p1067
I1
sS'DESIGNER'
p1068
I11
sS'SHIELD'
p1069
I3
sS'GRANT'
p1070
I4
sS'GROVE'
p1071
I6
sS'SAFE'
p1072
I0
sS'FREEZER'
p1073
I7
sS'OBVIOUS'
p1074
I1
sS'GRAND'
p1075
I9
sS'WATT'
p1076
I5
sS'PIANO'
p1077
I8
sS'REFEREE'
p1078
I8
sS'RENOUNCE'
p1079
I0
sS'PREDICT'
p1080
I1
sS'HUNT'
p1081
I10
sS'IDEAL'
p1082
I1
sS'VOMIT'
p1083
I6
sS'TEENAGER'
p1084
I0
sS'SUGGESTION'
p1085
I1
sS'EMERALD'
p1086
I11
sS'HUNG'
p1087
I2
sS'RESPECT'
p1088
I0
sS'ALTERNATIVE'
p1089
I9
sS'FLY'
p1090
I10
sS'STONE'
p1091
I5
sS'FLASK'
p1092
I6
sS'FAULT'
p1093
I3
sS'LIQUOR'
p1094
I6
sS'FOND'
p1095
I7
sS'FLU'
p1096
I2
sS'INTOXICATED'
p1097
I6
sS'HAMMOCK'
p1098
I5
sS'COOKIE'
p1099
I6
sS'AVENUE'
p1100
I5
sS'AFFECTION'
p1101
I0
sS'EXPLOSION'
p1102
I8
sS'CLARIFY'
p1103
I1
sS'WHISPER'
p1104
I8
sS'POETRY'
p1105
I1
sS'BULLOCK'
p1106
I10
sS'GUMS'
p1107
I6
sS'TROUBLE'
p1108
I3
sS'HARP'
p1109
I8
sS'CASE'
p1110
I1
sS'SQUARE'
p1111
I5
sS'WISDOM'
p1112
I1
sS'GLOVE'
p1113
I8
sS'INTROVERT'
p1114
I0
sS'MIST'
p1115
I7
sS'MISS'
p1116
I4
sS'CHORE'
p1117
I4
sS'BLOCKADE'
p1118
I5
sS'LOWER'
p1119
I5
sS'CAUTION'
p1120
I0
sS'APE'
p1121
I10
sS'ALGAE'
p1122
I6
sS'CREATURE'
p1123
I3
sS'DILL'
p1124
I6
sS'DUMP'
p1125
I4
sS'PUCK'
p1126
I2
sS'RANK'
p1127
I3
sS'CASH'
p1128
I4
sS'BRIGHT'
p1129
I5
sS'DUMB'
p1130
I0
sS'BARBECUE'
p1131
I6
sS'DISPLAY'
p1132
I1
sS'LUNCH'
p1133
I6
sS'HANDICAP'
p1134
I2
sS'VIOLENT'
p1135
I0
sS'MASTER'
p1136
I4
sS'CONQUER'
p1137
I4
sS'KIWI'
p1138
I6
sS'DEVELOPMENT'
p1139
I5
sS'DRAW'
p1140
I1
sS'GRAMMAR'
p1141
I1
sS'DISAGREE'
p1142
I0
sS'ASSIST'
p1143
I4
sS'LOSER'
p1144
I4
sS'DRAG'
p1145
I7
sS'KILOMETER'
p1146
I9
sS'SNOOZE'
p1147
I5
sS'OYSTER'
p1148
I6
sS'SLEEVE'
p1149
I11
sS'UNCOOKED'
p1150
I6
sS'BANANA'
p1151
I6
sS'FOREVER'
p1152
I5
sS'UNTRUE'
p1153
I3
sS'USA'
p1154
I3
sS'CINEMA'
p1155
I3
sS'SOFTDRINK'
p1156
I6
sS'RESISTANCE'
p1157
I3
sS'REPRESS'
p1158
I0
sS'BENEFIT'
p1159
I4
sS'SQUAD'
p1160
I3
sS'ARGUE'
p1161
I0
sS'ITALIAN'
p1162
I6
sS'GATHERING'
p1163
I4
sS'UNCLEAR'
p1164
I1
sS'CONSTITUTION'
p1165
I3
sS'WHEN'
p1166
I1
sS'PERCEIVE'
p1167
I1
sS'COCA-COLA'
p1168
I6
sS'AURA'
p1169
I6
sS'RUNG'
p1170
I7
sS'FLEXIBLE'
p1171
I2
sS'SHARK'
p1172
I7
sS'COMMITMENT'
p1173
I0
sS'REMEDY'
p1174
I2
sS'SWEAR'
p1175
I0
sS'SWEAT'
p1176
I2
sS'GOSSIP'
p1177
I1
sS'BISHOP'
p1178
I0
sS'SUPERMAN'
p1179
I0
sS'LAYER'
p1180
I6
sS'BRAT'
p1181
I0
sS'KNIGHT'
p1182
I3
sS'BUCKLE'
p1183
I11
sS'SNOW'
p1184
I7
sS'SNOT'
p1185
I0
sS'BRING'
p1186
I4
sS'PRIEST'
p1187
I0
sS'CHILD'
p1188
I0
sS'SNOB'
p1189
I0
sS'CHILI'
p1190
I6
sS'SCROLL'
p1191
I1
sS'CHILL'
p1192
I7
sS'GROWN'
p1193
I0
sS'CARROTS'
p1194
I6
sS'KNOWLEDGE'
p1195
I1
sS'POPE'
p1196
I0
sS'SIT'
p1197
I5
sS'SHARE'
p1198
I4
sS'SIX'
p1199
I9
sS'SAGE'
p1200
I6
sS'VEGETABLE'
p1201
I6
sS'STRANGE'
p1202
I9
sS'THANKS'
p1203
I4
sS'SIN'
p1204
I3
sS'CUSTOMER'
p1205
I4
sS'COMB'
p1206
I0
sS'TAP'
p1207
I2
sS'TAR'
p1208
I5
sS'MEMORIES'
p1209
I1
sS'HANGER'
p1210
I11
sS'TAX'
p1211
I4
sS'MERIT'
p1212
I4
sS'WAR'
p1213
I3
sS'BANDIT'
p1214
I3
sS'TAG'
p1215
I4
sS'TAB'
p1216
I6
sS'TAN'
p1217
I11
sS'PRIME'
p1218
I1
sS'FIGURE'
p1219
I1
sS'RUNNER'
p1220
I2
sS'GUARDIAN'
p1221
I0
sS'VILLAGE'
p1222
I3
sS'VAMPIRE'
p1223
I3
sS'TIGHT'
p1224
I11
sS'SCARCE'
p1225
I9
sS'KIDNAP'
p1226
I4
sS'SIMILAR'
p1227
I9
sS'CHILDREN'
p1228
I8
sS'BEAUTIFUL'
p1229
I0
sS'BIOLOGY'
p1230
I1
sS'LOOK'
p1231
I1
sS'HOUSE'
p1232
I5
sS'EXPRESS'
p1233
I1
sS'CONFUSE'
p1234
I1
sS'PICKUP'
p1235
I4
sS'GLOVES'
p1236
I2
sS'SPECIAL'
p1237
I0
sS'CONSUMER'
p1238
I4
sS'LOOP'
p1239
I11
sS'PACK'
p1240
I4
sS'VIKING'
p1241
I7
sS'USED'
p1242
I11
sS'DISGUST'
p1243
I0
sS'WRESTLING'
p1244
I8
sS'INEXPENSIVE'
p1245
I4
sS'PREFER'
p1246
I9
sS'SQUASH'
p1247
I6
sS'LABEL'
p1248
I1
sS'VIOLIN'
p1249
I8
sS'AGGRESSIVE'
p1250
I0
sS'HEADBAND'
p1251
I2
sS'BLUEJAY'
p1252
I10
sS'SHAG'
p1253
I7
sS'ODOR'
p1254
I6
sS'QUACK'
p1255
I5
sS'SCREW'
p1256
I5
sS'STARVING'
p1257
I6
sS'GLANDS'
p1258
I2
sS'OWNER'
p1259
I4
sS'SAVIOR'
p1260
I0
sS'VEHICLE'
p1261
I5
sS'PEBBLE'
p1262
I5
sS'AGREE'
p1263
I0
sS'IDENTITY'
p1264
I0
sS'BUCK'
p1265
I10
sS'PORTION'
p1266
I9
sS'TERMINAL'
p1267
I5
sS'FRIENDSHIP'
p1268
I0
sS'VEST'
p1269
I11
sS'AMBITION'
p1270
I4
sS'MONK'
p1271
I0
sS'DOWNTOWN'
p1272
I4
sS'RABBIT'
p1273
I10
sS'CURSIVE'
p1274
I1
sS'HOLDER'
p1275
I6
sS'ENGINEER'
p1276
I5
sS'CREST'
p1277
I5
sS'RECEIPT'
p1278
I4
sS'FUZZ'
p1279
I10
sS'FRIEND'
p1280
I0
sS'OUT'
p1281
I4
sS'STUDY'
p1282
I1
sS'VET'
p1283
I10
sS'FEDERAL'
p1284
I4
sS'BALLOON'
p1285
I8
sS'STOOL'
p1286
I5
sS'REPRODUCE'
p1287
I1
sS'ORDERLY'
p1288
I7
sS'STRIPE'
p1289
I11
sS'STOVE'
p1290
I6
sS'HAPPEN'
p1291
I1
sS'AIR'
p1292
I7
sS'STOPLIGHT'
p1293
I5
sS'ACHIEVE'
p1294
I4
sS'HAMBURGER'
p1295
I6
sS'ATTRACT'
p1296
I0
sS'FOUNTAIN'
p1297
I5
sS'INNOCENCE'
p1298
I3
sS'NOVEL'
p1299
I1
sS'REJOICE'
p1300
I0
sS'SMEAR'
p1301
I11
sS'STEM'
p1302
I6
sS'STEP'
p1303
I5
sS'ASTRONAUT'
p1304
I5
sS'STEW'
p1305
I6
sS'BOURBON'
p1306
I6
sS'CORRECT'
p1307
I1
sS'PATIO'
p1308
I5
sS'INTAKE'
p1309
I7
sS'TIRED'
p1310
I5
sS'PORCELAIN'
p1311
I6
sS'DRINK'
p1312
I6
sS'PROM'
p1313
I11
sS'CHOP'
p1314
I2
sS'BLOOD'
p1315
I2
sS'CROCHET'
p1316
I11
sS'CHIME'
p1317
I8
sS'BLOOM'
p1318
I6
sS'FLEX'
p1319
I2
sS'CONVENT'
p1320
I0
sS'RAIL'
p1321
I2
sS'RAIN'
p1322
I7
sS'PEARL'
p1323
I11
sS'OTHER'
p1324
I9
sS'SOLVE'
p1325
I1
sS'LIBEL'
p1326
I3
sS'FLEA'
p1327
I10
sS'FLEE'
p1328
I4
sS'DULL'
p1329
I11
sS'GLAD'
p1330
I0
sS'DANDELION'
p1331
I6
sS'DENIM'
p1332
I11
sS'SLIME'
p1333
I6
sS'SOPHISTICATED'
p1334
I0
sS'SLIMY'
p1335
I6
sS'DISTANT'
p1336
I0
sS'DECORATE'
p1337
I1
sS'CREAM'
p1338
I6
sS'HEADACHE'
p1339
I2
sS'FORTUNE'
p1340
I4
sS'TOAD'
p1341
I7
sS'DUPLICATE'
p1342
I1
sS'REEF'
p1343
I7
sS'REEL'
p1344
I3
sS'PLUG'
p1345
I5
sS'RIVER'
p1346
I7
sS'SURROUNDING'
p1347
I5
sS'CHILDISH'
p1348
I0
sS'FLYING'
p1349
I5
sS'LONG'
p1350
I5
sS'CONCENTRATE'
p1351
I1
sS'PLUS'
p1352
I9
sS'PROCEDURE'
p1353
I1
sS'MISTREAT'
p1354
I2
sS'SPREE'
p1355
I4
sS'WRINKLE'
p1356
I11
sS'OPPORTUNITY'
p1357
I4
sS'BUILDER'
p1358
I5
sS'BUNCH'
p1359
I9
sS'TREBLE'
p1360
I8
sS'ATHLETIC'
p1361
I2
sS'LIPS'
p1362
I0
sS'CELLO'
p1363
I8
sS'SMELT'
p1364
I6
sS'BECAUSE'
p1365
I1
sS'RELAX'
p1366
I5
sS'ADDITION'
p1367
I9
sS'REMINISCENCE'
p1368
I1
sS'MISSILE'
p1369
I5
sS'REGULATIONS'
p1370
I3
sS'ATTACH'
p1371
I11
sS'ATTACK'
p1372
I2
sS'HORNET'
p1373
I10
sS'SUITCASE'
p1374
I4
sS'INDUSTRY'
p1375
I4
sS'TREATMENT'
p1376
I2
sS'HULA'
p1377
I8
sS'REGRET'
p1378
I0
sS'GOAL'
p1379
I4
sS'TARNISH'
p1380
I11
sS'HULL'
p1381
I4
sS'FRAIL'
p1382
I0
sS'CRACKER'
p1383
I6
sS'PASSAGE'
p1384
I1
sS'SYMPATHY'
p1385
I0
sS'POLITICS'
p1386
I3
sS'MONARCH'
p1387
I3
sS'SEVERAL'
p1388
I9
sS'DENY'
p1389
I0
sS'PYRAMID'
p1390
I5
sS'CHAIN'
p1391
I11
sS'PEANUT'
p1392
I6
sS'BLACKMAIL'
p1393
I3
sS'WIPE'
p1394
I7
sS'MESS'
p1395
I6
sS'CUDDLE'
p1396
I10
sS'EDITOR'
p1397
I1
sS'PRESS'
p1398
I1
sS'GATE'
p1399
I5
sS'CHAIR'
p1400
I5
sS'INVENTOR'
p1401
I1
sS'DISSOLVE'
p1402
I5
sS'TEMPERATURE'
p1403
I7
sS'THIRD'
p1404
I4
sS'SHY'
p1405
I0
sS'WAVE'
p1406
I7
sS'WITHOUT'
p1407
I4
sS'STRUGGLE'
p1408
I0
sS'POST'
p1409
I4
sS'BEYOND'
p1410
I4
sS'BOULDER'
p1411
I5
sS'MUSCLE'
p1412
I2
sS'ICING'
p1413
I6
sS'POISE'
p1414
I0
sS'MATTRESS'
p1415
I5
sS'PAPER'
p1416
I1
sS'HAPPINESS'
p1417
I0
sS'INSURANCE'
p1418
I4
sS'BOIL'
p1419
I6
sS'JEANS'
p1420
I11
sS'RECIPE'
p1421
I6
sS'FOLD'
p1422
I11
sS'BASEBALL'
p1423
I8
sS'HATCH'
p1424
I1
sS'SMALL'
p1425
I9
sS'SLIVER'
p1426
I2
sS'ENJOY'
p1427
I0
sS'BALLET'
p1428
I8
sS'LIQUID'
p1429
I7
sS'COWBOY'
p1430
I10
sS'HOSPITAL'
p1431
I2
sS'COAST'
p1432
I7
sS'OUTRAGEOUS'
p1433
I9
sS'SPANISH'
p1434
I6
sS'QUANTITY'
p1435
I9
sS'MURDER'
p1436
I3
sS'CENTRAL'
p1437
I7
sS'SUCCESS'
p1438
I4
sS'SCHEDULE'
p1439
I1
sS'BERRY'
p1440
I6
sS'CURVED'
p1441
I5
sS'DIFFERENCE'
p1442
I9
sS'SPICY'
p1443
I6
sS'KEG'
p1444
I6
sS'CLERK'
p1445
I4
sS'MISSING'
p1446
I4
sS'ACTRESS'
p1447
I0
sS'CRAVE'
p1448
I6
sS'SCIENTIST'
p1449
I1
sS'SURVEY'
p1450
I1
sS'KEY'
p1451
I5
sS'FLUSH'
p1452
I7
sS'PLEASURE'
p1453
I0
sS'BLUES'
p1454
I8
sS'TEMPER'
p1455
I0
sS'SPICE'
p1456
I6
sS'GANDER'
p1457
I10
sS'PRISM'
p1458
I5
sS'SUSPENSE'
p1459
I1
sS'ROAST'
p1460
I6
sS'DUCK'
p1461
I10
sS'EMPLOYMENT'
p1462
I4
sS'MOLE'
p1463
I6
sS'GROUNDS'
p1464
I6
sS'IMPACT'
p1465
I5
sS'REACTION'
p1466
I1
sS'CRICKET'
p1467
I8
sS'BASKETBALL'
p1468
I8
sS'NORTH'
p1469
I7
sS'CAULIFLOWER'
p1470
I6
sS'UNDERSTANDING'
p1471
I0
sS'CHALKBOARD'
p1472
I1
sS'FACULTY'
p1473
I1
sS'CLASS'
p1474
I1
sS'ACHIEVEMENT'
p1475
I4
sS'DIVISION'
p1476
I9
sS'SLUMBER'
p1477
I5
sS'DOPE'
p1478
I2
sS'BATHROOM'
p1479
I7
sS'COMPASSION'
p1480
I0
sS'PAINT'
p1481
I11
sS'VERB'
p1482
I1
sS'NOOSE'
p1483
I2
sS'LIBERAL'
p1484
I3
sS'EXHAUSTED'
p1485
I5
sS'ALLERGY'
p1486
I2
sS'WATCH'
p1487
I1
sS'FROG'
p1488
I7
sS'CARELESS'
p1489
I0
sS'TROUSERS'
p1490
I11
sS'FUEL'
p1491
I7
sS'SORORITY'
p1492
I0
sS'CHICKEN'
p1493
I6
sS'WAGER'
p1494
I4
sS'HUSTLE'
p1495
I5
sS'VANILLA'
p1496
I6
sS'FLORIDA'
p1497
I7
sS'OUCH'
p1498
I2
sS'PERFUME'
p1499
I6
sS'PARENTS'
p1500
I0
sS'SURVIVE'
p1501
I2
sS'NEPHEW'
p1502
I0
sS'SHIP'
p1503
I7
sS'POPEYE'
p1504
I6
sS'NAG'
p1505
I0
sS'PRECISE'
p1506
I1
sS'WASHCLOTH'
p1507
I7
sS'HABIT'
p1508
I9
sS'WEAPON'
p1509
I2
sS'PROTRACTOR'
p1510
I5
sS'EMPLOYER'
p1511
I4
sS'LOUNGE'
p1512
I5
sS'THEFT'
p1513
I3
sS'EMPLOYEE'
p1514
I4
sS'MAMMAL'
p1515
I7
sS'METHOD'
p1516
I1
sS'DOMINANT'
p1517
I0
sS'MONOTONOUS'
p1518
I9
sS'GYMNAST'
p1519
I2
sS'SCREEN'
p1520
I1
sS'JELLY'
p1521
I6
sS'BACK'
p1522
I2
sS'BASEMENT'
p1523
I5
sS'FALSE'
p1524
I3
sS'JELLO'
p1525
I6
sS'HELIUM'
p1526
I7
sS'COTTON'
p1527
I11
sS'ADVERB'
p1528
I1
sS'BULLET'
p1529
I2
sS'BURST'
p1530
I8
sS'CAVE'
p1531
I5
sS'NAP'
p1532
I5
sS'EXPERIENCE'
p1533
I1
sS'METEOR'
p1534
I5
sS'TUSK'
p1535
I7
sS'CIRCLE'
p1536
I5
sS'BLOSSOM'
p1537
I6
sS'TRADITION'
p1538
I3
sS'TREAT'
p1539
I6
sS'GUESS'
p1540
I1
sS'DEATH'
p1541
I2
sS'GROUP'
p1542
I9
sS'CHAMPION'
p1543
I4
sS'SELECTION'
p1544
I9
sS'DEPRESSED'
p1545
I0
sS'SKY'
p1546
I5
sS'PARSLEY'
p1547
I6
sS'DISCOMFORT'
p1548
I2
sS'GRAIN'
p1549
I6
sS'SUEDE'
p1550
I11
sS'ENGLISH'
p1551
I1
sS'NURSE'
p1552
I2
sS'SKI'
p1553
I7
sS'CLIMBER'
p1554
I5
sS'TOMATO'
p1555
I6
sS'GET'
p1556
I4
sS'RIDICULE'
p1557
I0
sS'FAVORITE'
p1558
I0
sS'ALTER'
p1559
I5
sS'GREATEST'
p1560
I9
sS'ARCTIC'
p1561
I7
sS'GEM'
p1562
I11
sS'THEORY'
p1563
I1
sS'VISIT'
p1564
I4
sS'PHILOSOPHER'
p1565
I1
sS'ZOO'
p1566
I10
sS'COTTAGE'
p1567
I10
sS'STROKE'
p1568
I2
sS'EAGER'
p1569
I0
sS'SATIN'
p1570
I11
sS'MANNERS'
p1571
I0
sS'PURPOSE'
p1572
I1
sS'BASKET'
p1573
I6
sS'PASSION'
p1574
I0
sS'BREAD'
p1575
I6
sS'PROVISION'
p1576
I4
sS'WICKED'
p1577
I0
sS'BRUNETTE'
p1578
I0
sS'OFFICE'
p1579
I4
sS'DEMI'
p1580
I9
sS'TECHNICIAN'
p1581
I5
sS'NATIVE'
p1582
I3
sS'RIGHTEOUS'
p1583
I0
sS'APPLE'
p1584
I6
sS'DISMISS'
p1585
I4
sS'THIRST'
p1586
I6
sS'ENRAGE'
p1587
I0
sS'PANIC'
p1588
I0
sS'CRAWL'
p1589
I10
sS'COMPETENCE'
p1590
I1
sS'LUXURY'
p1591
I4
sS'ANNOY'
p1592
I0
sS'KNEES'
p1593
I2
sS'SIREN'
p1594
I8
sS'HER'
p1595
I0
sS'NEEDY'
p1596
I4
sS'ATHLETE'
p1597
I2
sS'COMFORT'
p1598
I5
sS'COVER'
p1599
I11
sS'VALUABLE'
p1600
I4
sS'HANDBAG'
p1601
I4
sS'SUDS'
p1602
I7
sS'TANGY'
p1603
I6
sS'HEM'
p1604
I11
sS'HEN'
p1605
I6
sS'EXAMPLE'
p1606
I1
sS'KNEEL'
p1607
I5
sS'WINTER'
p1608
I7
sS'GAZELLE'
p1609
I10
sS'CAFFEINE'
p1610
I6
sS'STRATEGY'
p1611
I1
sS'PREY'
p1612
I10
sS'TRAP'
p1613
I10
sS'TRAY'
p1614
I6
sS'GOAT'
p1615
I10
sS"MCDONALD'S"
p1616
I6
sS'FUGITIVE'
p1617
I3
sS'BIRTHDAY'
p1618
I5
sS'GOODBYE'
p1619
I4
sS'KEYBOARD'
p1620
I8
sS'SWISS'
p1621
I6
sS'SITUATION'
p1622
I1
sS'OWL'
p1623
I1
sS'TERM'
p1624
I1
sS'OWN'
p1625
I4
sS'LETTERS'
p1626
I1
sS'OWE'
p1627
I4
sS'AWAY'
p1628
I4
sS'HUMBLE'
p1629
I0
sS'CATERPILLAR'
p1630
I10
sS'STIMULUS'
p1631
I1
sS'INTEREST'
p1632
I4
sS'RETAIN'
p1633
I4
sS'STACK'
p1634
I5
sS'SQUINT'
p1635
I1
sS'QUOTIENT'
p1636
I1
sS'HEATER'
p1637
I7
sS'DEODORANT'
p1638
I6
sS'PETROLEUM'
p1639
I6
sS'SPHERE'
p1640
I5
sS'CLINIC'
p1641
I2
sS'WHITE'
p1642
I11
sS'LIKELIHOOD'
p1643
I1
sS'STRIVE'
p1644
I4
sS'PLANT'
p1645
I6
sS'QUILT'
p1646
I11
sS'YAWN'
p1647
I6
sS'HOOK'
p1648
I7
sS'HYGIENE'
p1649
I2
sS'PLANE'
p1650
I5
sS'QUILL'
p1651
I11
sS'SCALPEL'
p1652
I2
sS'KNOCK'
p1653
I8
sS'INSIGHT'
p1654
I1
sS'ADVIL'
p1655
I2
sS'HORROR'
p1656
I3
sS'THREE'
p1657
I9
sS'TULIP'
p1658
I6
sS'POP'
p1659
I8
sS'TROPHY'
p1660
I4
sS'JUICE'
p1661
I6
sS'OPENING'
p1662
I5
sS'PIGEON'
p1663
I10
sS'FAMISHED'
p1664
I6
sS'TURN'
p1665
I5
sS'UNPLEASANT'
p1666
I0
sS'CUFF'
p1667
I11
sS'CONCEITED'
p1668
I0
sS'RAKE'
p1669
I6
sS'TRIGGER'
p1670
I2
sS'COSMETICS'
p1671
I0
sS'VACUUM'
p1672
I7
sS'FUDGE'
p1673
I6
sS'JUNIOR'
p1674
I0
sS'BRACES'
p1675
I2
sS'BEFORE'
p1676
I5
sS'ON'
p1677
I5
sS'FLUNK'
p1678
I4
sS'MOMENT'
p1679
I5
sS'HEARING'
p1680
I8
sS'FUTURE'
p1681
I1
sS'MORAL'
p1682
I1
sS'OX'
p1683
I10
sS'CRIMINAL'
p1684
I3
sS'PERCEPTION'
p1685
I1
sS'SQUIRREL'
p1686
I10
sS'DEMOCRACY'
p1687
I3
sS'ARMOR'
p1688
I3
sS'FRILL'
p1689
I11
sS'CLOAK'
p1690
I11
sS'DEW'
p1691
I7
sS'WIGGLE'
p1692
I0
sS'CHANCE'
p1693
I1
sS'GOING'
p1694
I4
sS'VICTORY'
p1695
I4
sS'BEETLE'
p1696
I10
sS'PRINT'
p1697
I1
sS'FEAR'
p1698
I0
sS'MARINES'
p1699
I3
sS'UNDERWATER'
p1700
I7
sS'ACID'
p1701
I2
sS'TALENT'
p1702
I1
sS'BORING'
p1703
I1
sS'FORBIDDEN'
p1704
I3
sS'CHOCOLATE'
p1705
I6
sS'ALMIGHTY'
p1706
I9
sS'SHORTS'
p1707
I11
sS'SKIP'
p1708
I5
sS'ADVERSARY'
p1709
I8
sS'LEADER'
p1710
I4
sS'VISION'
p1711
I1
sS'IRREGULAR'
p1712
I9
sS'TABOO'
p1713
I3
sS'LET'
p1714
I3
sS'SUBJECTIVE'
p1715
I1
sS'SWALLOW'
p1716
I6
sS'ESTEEM'
p1717
I0
sS'ERROR'
p1718
I3
sS'RELEASE'
p1719
I4
sS'PERFORMANCE'
p1720
I8
sS'VASE'
p1721
I6
sS'ORIENT'
p1722
I3
sS'REMEMBER'
p1723
I1
sS'BUTTERFLY'
p1724
I10
sS'PLEASANT'
p1725
I0
sS'CALORIES'
p1726
I6
sS'OBNOXIOUS'
p1727
I0
sS'FRIENDLY'
p1728
I0
sS'SUBSTANCE'
p1729
I7
sS'MENTAL'
p1730
I2
sS'ACE'
p1731
I4
sS'PANTHER'
p1732
I10
sS'EVALUATE'
p1733
I1
sS'SPIDER'
p1734
I10
sS'AFTERNOON'
p1735
I5
sS'ACT'
p1736
I1
sS'THROAT'
p1737
I2
sS'NEW'
p1738
I1
sS'NET'
p1739
I8
sS'CHAPEL'
p1740
I0
sS'RIGHTEOUSNESS'
p1741
I0
sS'TORTOISE'
p1742
I7
sS'TIRE'
p1743
I5
sS'HYPNOTIZE'
p1744
I1
sS'GRASSHOPPER'
p1745
I10
sS'SUNNY'
p1746
I5
sS'MILK'
p1747
I6
sS'GAUGE'
p1748
I9
sS'ALARM'
p1749
I5
sS'PLUMBER'
p1750
I7
sS'FLASH'
p1751
I5
sS'CITRUS'
p1752
I6
sS'YACHT'
p1753
I7
sS'PETALS'
p1754
I6
sS'EVENING'
p1755
I5
sS'NEED'
p1756
I4
sS'ACHE'
p1757
I2
sS'HAMPER'
p1758
I5
sS'HOBO'
p1759
I4
sS'GIGGLE'
p1760
I0
sS'MEN'
p1761
I0
sS'BOOT'
p1762
I11
sS'BORROW'
p1763
I4
sS'BOOK'
p1764
I1
sS'BOOM'
p1765
I8
sS'KNUCKLE'
p1766
I2
sS'RUSSIA'
p1767
I3
sS'FURNITURE'
p1768
I5
sS'ANGLE'
p1769
I5
sS'WALL'
p1770
I5
sS'UMPIRE'
p1771
I8
sS'EVIDENCE'
p1772
I3
sS'FACE'
p1773
I0
sS'SHIRT'
p1774
I11
sS'WEIGHT'
p1775
I9
sS'BURY'
p1776
I2
sS'WELL'
p1777
I2
sS'EVERYTHING'
p1778
I9
sS'BEHIND'
p1779
I4
sS'FASTEN'
p1780
I11
sS'OPERATION'
p1781
I2
sS'GRAVEL'
p1782
I5
sS'PIMPLE'
p1783
I0
sS'ROT'
p1784
I6
sS'STATUS'
p1785
I4
sS'FLASHLIGHT'
p1786
I5
sS'SARDINE'
p1787
I6
sS'BACKBONE'
p1788
I2
sS'ERECT'
p1789
I0
sS'STANDARDS'
p1790
I1
sS'HIKER'
p1791
I5
sS'SPLIT'
p1792
I11
sS'STATUE'
p1793
I5
sS'BUILDING'
p1794
I5
sS'SEVEN'
p1795
I9
sS'PARROT'
p1796
I6
sS'SHRINE'
p1797
I0
sS'BLAST'
p1798
I8
sS'EASTER'
p1799
I6
sS'SHRINK'
p1800
I5
sS'SHOOT'
p1801
I2
sS'RELATIVITY'
p1802
I1
sS'HAVOC'
p1803
I3
sS'CRESCENT'
p1804
I5
sS'DYNASTY'
p1805
I3
sS'MEADOW'
p1806
I6
sS'APRON'
p1807
I6
sS'TREASURE'
p1808
I4
sS'FLUID'
p1809
I7
sS'HITCH'
p1810
I11
sS'CRITICAL'
p1811
I1
sS'CUSHION'
p1812
I5
sS'TRAITOR'
p1813
I3
sS'HURRY'
p1814
I5
sS'IMPRESSION'
p1815
I1
sS'PERIOD'
p1816
I1
sS'ECONOMIC'
p1817
I4
sS'PREFERENCE'
p1818
I9
sS'CLENCH'
p1819
I4
sS'DORM'
p1820
I2
sS'WEIRD'
p1821
I9
sS'DETACH'
p1822
I11
sS'DREAM'
p1823
I1
sS'CLOTHES'
p1824
I11
sS'HAIRY'
p1825
I0
sS'REFRESHING'
p1826
I7
sS'ATTIC'
p1827
I5
sS'OUTLAW'
p1828
I3
sS'WATER'
p1829
I7
sS'DINOSAUR'
p1830
I9
sS'TOOTHPASTE'
p1831
I2
sS'REWARD'
p1832
I4
sS'REALIZE'
p1833
I1
sS'PROHIBIT'
p1834
I3
sS'ALE'
p1835
I6
sS'MOVIE'
p1836
I3
sS'FRIDAY'
p1837
I5
sS'HEROIN'
p1838
I0
sS'CRUMB'
p1839
I6
sS'DISOWN'
p1840
I0
sS'HONOR'
p1841
I3
sS'SELECT'
p1842
I9
sS'CLEANER'
p1843
I7
sS'WHAT'
p1844
I1
sS'PRIDE'
p1845
I0
sS'DOCTOR'
p1846
I2
sS'MIGRAINE'
p1847
I2
sS'STEAL'
p1848
I3
sS'CHISEL'
p1849
I2
sS'ABDOMEN'
p1850
I6
sS'HEADING'
p1851
I1
sS'WITCH'
p1852
I3
sS'LOCATION'
p1853
I1
sS'SCUM'
p1854
I6
sS'SQUEEZE'
p1855
I6
sS'HEROINE'
p1856
I2
sS'HOMEWORK'
p1857
I1
sS'CONDEMN'
p1858
I3
sS'RESPONSIBLE'
p1859
I0
sS'SUBURB'
p1860
I3
sS'INTENT'
p1861
I1
sS'AMBULANCE'
p1862
I2
sS'PREVIEW'
p1863
I1
sS'TECHNOLOGY'
p1864
I1
sS'TRY'
p1865
I1
sS'DILIGENCE'
p1866
I1
sS'CAREER'
p1867
I4
sS'CHORUS'
p1868
I8
sS'IMPULSE'
p1869
I5
sS'KNOB'
p1870
I5
sS'GROSS'
p1871
I6
sS'BLOCKS'
p1872
I5
sS'RAISE'
p1873
I4
sS'GENTLEMAN'
p1874
I0
sS'APPLICATION'
p1875
I4
sS'POLE'
p1876
I5
sS'KNOW'
p1877
I1
sS'KNOT'
p1878
I11
sS'DIRECTIONS'
p1879
I1
sS'HOME'
p1880
I3
sS'BANDAID'
p1881
I2
sS'SATURN'
p1882
I5
sS'HEART'
p1883
I2
sS'READING'
p1884
I1
sS'PATIENT'
p1885
I2
sS'THIRSTY'
p1886
I7
sS'POINT'
p1887
I1
sS'DRUGS'
p1888
I2
sS'SPATULA'
p1889
I6
sS'GORGEOUS'
p1890
I0
sS'NECKLACE'
p1891
I11
sS'BONE'
p1892
I2
sS'BOND'
p1893
I11
sS'LITERATURE'
p1894
I1
sS'COZY'
p1895
I5
sS'JET'
p1896
I5
sS'SOLID'
p1897
I11
sS'CANNON'
p1898
I7
sS'DOORBELL'
p1899
I8
sS'MEATBALLS'
p1900
I6
sS'DISALLOW'
p1901
I3
sS'OVERPOWER'
p1902
I0
sS'SUMMARY'
p1903
I1
sS'CUCUMBER'
p1904
I6
sS'SCARCITY'
p1905
I9
sS'RUBY'
p1906
I11
sS'AWE'
p1907
I0
sS'LOSS'
p1908
I4
sS'CREEK'
p1909
I7
sS'LOST'
p1910
I4
sS'RIGHTS'
p1911
I3
sS'BROTH'
p1912
I6
sS'PERJURY'
p1913
I3
sS'ASTEROID'
p1914
I5
sS'LOSE'
p1915
I4
sS'GREEN'
p1916
I6
sS'PAGE'
p1917
I1
sS'EXCLAMATIONPOINT'
p1918
I1
sS'OBEY'
p1919
I1
sS'HIKING'
p1920
I10
sS'DECK'
p1921
I7
sS'SOIL'
p1922
I6
sS'DOLLARS'
p1923
I4
sS'LINEN'
p1924
I11
sS'DESPAIR'
p1925
I0
sS'SLUM'
p1926
I3
sS'ATLAS'
p1927
I1
sS'SLUG'
p1928
I10
sS'SHAVE'
p1929
I0
sS'IMAGE'
p1930
I1
sS'COLLAR'
p1931
I11
sS'CAPABILITY'
p1932
I1
sS'MAGAZINE'
p1933
I1
sS'CINNAMON'
p1934
I6
sS'BLUFF'
p1935
I5
sS'FARMER'
p1936
I6
sS'SYRINGE'
p1937
I2
sS'PIOUS'
p1938
I0
sS'CHIMNEY'
p1939
I7
sS'CHARCOAL'
p1940
I6
sS'INFINITY'
p1941
I5
sS'PROSECUTE'
p1942
I3
sS'LEATHER'
p1943
I11
sS'SCRAP'
p1944
I6
sS'CONTEMPORARY'
p1945
I1
sS'GUITAR'
p1946
I8
sS'SCORE'
p1947
I4
sS'BRISTLE'
p1948
I2
sS'INFINITE'
p1949
I5
sS'HIT'
p1950
I2
sS'FLAVOR'
p1951
I6
sS'NYLON'
p1952
I11
sS'SALESMAN'
p1953
I4
sS'EXCITED'
p1954
I0
sS'SCHOLARSHIP'
p1955
I4
sS'INHALE'
p1956
I7
sS'OXYGEN'
p1957
I7
sS'PRESSURE'
p1958
I0
sS'CHARACTERISTIC'
p1959
I1
sS'SINCERE'
p1960
I3
sS'HOOKED'
p1961
I7
sS'NEGATIVE'
p1962
I0
sS'FROSTED'
p1963
I6
sS'TREND'
p1964
I11
sS'DEFENSE'
p1965
I3
sS'CRAB'
p1966
I6
sS'PEACEFUL'
p1967
I8
sS'SURPRISE'
p1968
I0
sS'WASHER'
p1969
I7
sS'TOOLS'
p1970
I5
sS'TAXI'
p1971
I5
sS'REFLECT'
p1972
I1
sS'KILL'
p1973
I2
sS'TRUTH'
p1974
I3
sS'DONOR'
p1975
I4
sS'BANJO'
p1976
I8
sS'BLUEBERRY'
p1977
I6
sS'GAUZE'
p1978
I2
sS'ADOLESCENT'
p1979
I0
sS'BOTTOM'
p1980
I5
sS'TUTU'
p1981
I8
sS'AARDVARK'
p1982
I10
sS'BASHFUL'
p1983
I0
sS'CROOK'
p1984
I3
sS'SUCCOR'
p1985
I6
sS'FATIGUE'
p1986
I5
sS'PLAYGROUND'
p1987
I0
sS'DECENCY'
p1988
I0
sS'ANSWER'
p1989
I1
sS'PERCENTAGE'
p1990
I4
sS'FOUNDATION'
p1991
I5
sS'SHED'
p1992
I6
sS'CABBAGE'
p1993
I6
sS'EYE'
p1994
I1
sS'MUMMY'
p1995
I2
sS'GROOM'
p1996
I0
sS'ACTOR'
p1997
I8
sS'GANGSTER'
p1998
I3
sS'FOIL'
p1999
I4
sS'SLACKS'
p2000
I11
sS'BURDEN'
p2001
I4
sS'BECOME'
p2002
I4
sS'DIVING'
p2003
I7
sS'TICKET'
p2004
I4
sS'MAGICIAN'
p2005
I11
sS'LADY'
p2006
I0
sS'STOCK'
p2007
I4
sS'SHOULDER'
p2008
I2
sS'IVY'
p2009
I6
sS'GEESE'
p2010
I10
sS'IMPATIENCE'
p2011
I0
sS'DISCOURAGE'
p2012
I0
sS'ROSE'
p2013
I6
sS'SERVER'
p2014
I6
sS'DIZZY'
p2015
I2
sS'EXIST'
p2016
I2
sS'PLAQUE'
p2017
I2
sS'SIGHT'
p2018
I1
sS'PROVERB'
p2019
I1
sS'STRAIGHT'
p2020
I5
sS'FIRM'
p2021
I0
sS'COLLEGE'
p2022
I1
sS'SCALE'
p2023
I9
sS'STAR'
p2024
I5
sS'BUSINESS'
p2025
I4
sS'CIRCUMSTANCE'
p2026
I1
sS'FOUL'
p2027
I6
sS'STAY'
p2028
I4
sS'FOUR'
p2029
I9
sS'STAG'
p2030
I10
sS'STAB'
p2031
I2
sS'SCALP'
p2032
I2
sS'FUN'
p2033
I8
sS'NECESSARY'
p2034
I4
sS'FISH'
p2035
I7
sS'BLIND'
p2036
I1
sS'BEAST'
p2037
I10
sS'MANAGER'
p2038
I4
sS'FRANTIC'
p2039
I0
sS'HILL'
p2040
I5
sS'SICK'
p2041
I2
sS'OLIVE'
p2042
I6
sS'UPDATE'
p2043
I1
sS'ANXIOUS'
p2044
I0
sS'DAIRY'
p2045
I6
sS'SECURITY'
p2046
I3
sS'SPAWN'
p2047
I1
sS'MOOD'
p2048
I0
sS'WIFE'
p2049
I0
sS'CANOE'
p2050
I7
sS'MOON'
p2051
I5
sS'UNCOMFORTABLE'
p2052
I5
sS'MAILBOX'
p2053
I4
sS'STEEL'
p2054
I4
sS'CLOCK'
p2055
I5
sS'SPRING'
p2056
I7
sS'MONARCHY'
p2057
I3
sS'INTERRUPT'
p2058
I0
sS'CHEERFUL'
p2059
I0
sS'STONED'
p2060
I6
sS'STRONG'
p2061
I2
sS'STEEP'
p2062
I5
sS'NEGLECT'
p2063
I0
sS'STEER'
p2064
I10
sS'BROWN'
p2065
I11
sS'MANAGEMENT'
p2066
I4
sS'LEGION'
p2067
I3
sS'ODDS'
p2068
I4
sS'HONEYMOON'
p2069
I0
sS'SWAP'
p2070
I4
sS'SHAKE'
p2071
I6
sS'LORD'
p2072
I0
sS'CAFETERIA'
p2073
I6
sS'SWAY'
p2074
I5
sS'PROTECT'
p2075
I3
sS'HERO'
p2076
I0
sS'OPPOSITE'
p2077
I9
sS'HERB'
p2078
I6
sS'HERE'
p2079
I4
sS'HERD'
p2080
I10
sS'BRANDY'
p2081
I6
sS'FUZZY'
p2082
I10
sS'RACCOON'
p2083
I10
sS'LESSON'
p2084
I1
sS'ESSENCE'
p2085
I6
sS'SALIVA'
p2086
I6
sS'MATTER'
p2087
I1
sS'HAZE'
p2088
I7
sS'HORRIBLE'
p2089
I6
sS'GROCERY'
p2090
I4
sS'BOMB'
p2091
I8
sS'COMPLETE'
p2092
I1
sS'MUSHROOM'
p2093
I6
sS'CONCEIT'
p2094
I0
sS'NUCLEAR'
p2095
I8
sS'EYEBALL'
p2096
I1
sS'ENTRANCE'
p2097
I5
sS'WEIGHTS'
p2098
I2
sS'SAME'
p2099
I9
sS'SHUTTLE'
p2100
I5
sS'CERAMICS'
p2101
I6
sS'DEPEND'
p2102
I0
sS'AUTOMOBILE'
p2103
I5
sS'RELIABLE'
p2104
I0
sS'HUNGRY'
p2105
I6
sS'COMMA'
p2106
I1
sS'STINGY'
p2107
I4
sS'SERIES'
p2108
I1
sS'BIT'
p2109
I9
sS'OTTER'
p2110
I7
sS'POOR'
p2111
I4
sS'LOSANGELES'
p2112
I3
sS'SLY'
p2113
I3
sS'HOLY'
p2114
I0
sS'WARY'
p2115
I0
sS'LEARNER'
p2116
I1
sS'BEWARE'
p2117
I0
sS'FAINT'
p2118
I2
sS'DOLLAR'
p2119
I4
sS'WARN'
p2120
I1
sS'THING'
p2121
I1
sS'SEMESTER'
p2122
I1
sS'WARM'
p2123
I7
sS'DEPOSIT'
p2124
I4
sS'FLEET'
p2125
I5
sS'HOLE'
p2126
I6
sS'HOLD'
p2127
I4
sS'DOWNSTAIRS'
p2128
I5
sS'MESSAGE'
p2129
I1
sS'POOL'
p2130
I7
sS'JUGGLER'
p2131
I8
sS'TELEVISION'
p2132
I1
sS'RIGHT'
p2133
I1
sS'GRADE'
p2134
I4
sS'FLOAT'
p2135
I7
sS'MEANING'
p2136
I1
sS'CRADLE'
p2137
I0
sS'SCOTCH'
p2138
I6
sS'LEAVES'
p2139
I6
sS'LACE'
p2140
I11
sS'CONGRESS'
p2141
I3
sS'LACK'
p2142
I4
sS'ORCHESTRA'
p2143
I8
sS'MOWER'
p2144
I6
sS'SOOTHE'
p2145
I2
sS'STREET'
p2146
I5
sS'CLEANING'
p2147
I7
sS'WANT'
p2148
I4
sS'UPSTREAM'
p2149
I7
sS'TENDER'
p2150
I6
sS'FAIRY'
p2151
I0
sS'OCTOPUS'
p2152
I7
sS'BEST'
p2153
I9
sS'HONESTY'
p2154
I3
sS'TENNIS'
p2155
I8
sS'DEMON'
p2156
I3
sS'MAGNET'
p2157
I4
sS'SESSION'
p2158
I1
sS'DICTATOR'
p2159
I3
sS'KNIFE'
p2160
I2
sS'CURIOSITY'
p2161
I1
sS'ACTIVITY'
p2162
I8
sS'ANNOUNCE'
p2163
I1
sS'SINUS'
p2164
I2
sS'TWINE'
p2165
I11
sS'MAGIC'
p2166
I11
sS'SONG'
p2167
I8
sS'WALKWAY'
p2168
I5
sS'RELATIVE'
p2169
I0
sS'INSTRUCTOR'
p2170
I1
sS'GEORGE'
p2171
I0
sS'RESTORE'
p2172
I5
sS'CRAZY'
p2173
I0
sS'WORKOUT'
p2174
I2
sS'WELCOME'
p2175
I4
sS'KIT'
p2176
I5
sS'BLAME'
p2177
I3
sS'DENTIST'
p2178
I2
sS'SNEAKERS'
p2179
I11
sS'KIN'
p2180
I0
sS'PITCH'
p2181
I8
sS'MIDGET'
p2182
I9
sS'KID'
p2183
I0
sS'INSANE'
p2184
I0
sS'TOAST'
p2185
I6
sS'RETURN'
p2186
I4
sS'SICKNESS'
p2187
I2
sS'CRY'
p2188
I0
sS'LEAVE'
p2189
I4
sS'RATE'
p2190
I4
sS'DAISY'
p2191
I6
sS'ICEBERG'
p2192
I7
sS'ROUND'
p2193
I5
sS'CABIN'
p2194
I2
sS'MAJORITY'
p2195
I9
sS'WITH'
p2196
I4
sS'PIGMENT'
p2197
I11
sS'WARNING'
p2198
I1
sS'NINE'
p2199
I9
sS'SUNSET'
p2200
I5
sS'LANDSCAPE'
p2201
I6
sS'OUTGOING'
p2202
I0
sS'CATCHER'
p2203
I8
sS'PLEDGE'
p2204
I3
sS'INQUIRE'
p2205
I1
sS'MOOSE'
p2206
I10
sS'PRECIPICE'
p2207
I5
sS'REASON'
p2208
I1
sS'TARDY'
p2209
I1
sS'UNIT'
p2210
I9
sS'TRACE'
p2211
I1
sS'POTATO'
p2212
I6
sS'SEASONING'
p2213
I6
sS'POSITIVE'
p2214
I1
sS'FUNERAL'
p2215
I2
sS'SHATTER'
p2216
I5
sS'DRAGON'
p2217
I3
sS'UPTIGHT'
p2218
I0
sS'BUZZ'
p2219
I8
sS'SUPPOSE'
p2220
I1
sS'MAYONNAISE'
p2221
I6
sS'KETCHUP'
p2222
I6
sS'STAFF'
p2223
I9
sS'LOOSEN'
p2224
I11
sS'CRITICIZE'
p2225
I0
sS'DOWNSTREAM'
p2226
I7
sS'CONSCIOUS'
p2227
I1
sS'SMOOTH'
p2228
I0
sS'USE'
p2229
I4
sS'DECEIT'
p2230
I3
sS'HECTIC'
p2231
I5
sS'CHURCH'
p2232
I0
sS'CARPET'
p2233
I7
sS'HESITATE'
p2234
I5
sS'OLD'
p2235
I0
sS'CHERRY'
p2236
I6
sS'DAMP'
p2237
I7
sS'WHOM'
p2238
I1
sS'SPLASH'
p2239
I7
sS'STETHOSCOPE'
p2240
I2
sS'TRAILER'
p2241
I4
sS'PUNISHMENT'
p2242
I3
sS'AEROBICS'
p2243
I2
sS'EXCHANGE'
p2244
I4
sS'GRIND'
p2245
I6
sS'ROAM'
p2246
I4
sS'STEEPLE'
p2247
I0
sS'PRECIOUS'
p2248
I11
sS'CACTUS'
p2249
I2
sS'RIBBON'
p2250
I11
sS'MONSTER'
p2251
I3
sS'STRANGER'
p2252
I5
sS'MIMIC'
p2253
I0
sS'STUDENT'
p2254
I1
sS'IGNORANT'
p2255
I0
sS'SIDE'
p2256
I5
sS'LUCK'
p2257
I4
sS'PONY'
p2258
I10
sS'BELIEF'
p2259
I1
sS'SHERIFF'
p2260
I3
sS'MUFFIN'
p2261
I6
sS'HOOP'
p2262
I5
sS'PEPPER'
p2263
I6
sS'HOOT'
p2264
I8
sS'SUPERSTITION'
p2265
I0
sS'URGENT'
p2266
I5
sS'VERDICT'
p2267
I3
sS'POND'
p2268
I7
sS'KNIT'
p2269
I11
sS'BUNNY'
p2270
I10
sS'HOOD'
p2271
I11
sS'SECRETARY'
p2272
I4
sS'PORCUPINE'
p2273
I2
sS'SUPERIOR'
p2274
I9
sS'VODKA'
p2275
I6
sS'SOB'
p2276
I0
sS'REFLECTION'
p2277
I1
sS'REAPPEAR'
p2278
I1
sS'FILTHY'
p2279
I4
sS'GAS'
p2280
I7
sS'SON'
p2281
I0
sS'ELECTRICITY'
p2282
I5
sS'GAL'
p2283
I0
sS'RIGID'
p2284
I0
sS'SOW'
p2285
I6
sS'HERITAGE'
p2286
I3
sS'GAG'
p2287
I0
sS'OKAY'
p2288
I9
sS'RUDE'
p2289
I0
sS'AUTO'
p2290
I5
sS'PIECES'
p2291
I6
sS'COUNTY'
p2292
I3
sS'ASLEEP'
p2293
I5
sS'DECEIVE'
p2294
I3
sS'CYCLONE'
p2295
I7
sS'FRIAR'
p2296
I0
sS'WORTH'
p2297
I4
sS'TRACTOR'
p2298
I6
sS'WHEEL'
p2299
I5
sS'ALWAYS'
p2300
I9
sS'FORCEFUL'
p2301
I0
sS'DINNER'
p2302
I6
sS'EXISTENCE'
p2303
I2
sS'LOUD'
p2304
I8
sS'STEWARDESS'
p2305
I0
sS'SHEARS'
p2306
I2
sS'DEAL'
p2307
I4
sS'DRAPES'
p2308
I5
sS'HEALTHY'
p2309
I2
sS'DEAF'
p2310
I8
sS'SOON'
p2311
I5
sS'DEAD'
p2312
I2
sS'LABOR'
p2313
I4
sS'LOVER'
p2314
I0
sS'SUBTRACT'
p2315
I9
sS'EVERYDAY'
p2316
I9
sS'THRILLER'
p2317
I3
sS'VIVID'
p2318
I1
sS'DIFFER'
p2319
I9
sS'STEREOTYPE'
p2320
I3
sS'FLING'
p2321
I0
sS'APEX'
p2322
I5
sS'TRANCE'
p2323
I1
sS'GIVE'
p2324
I4
sS'METER'
p2325
I9
sS'SHRIMP'
p2326
I6
sS'HOPELESS'
p2327
I4
sS'THRESHOLD'
p2328
I5
sS'ANGRY'
p2329
I0
sS'BRAVERY'
p2330
I0
sS'ALIKE'
p2331
I9
sS'VALVE'
p2332
I5
sS'BOLD'
p2333
I0
sS'MASTERY'
p2334
I1
sS'INVALID'
p2335
I3
sS'EXPLODE'
p2336
I8
sS'TEARS'
p2337
I0
sS'BOLT'
p2338
I5
sS'ARROW'
p2339
I2
sS'ESCAPE'
p2340
I4
sS'NAVY'
p2341
I3
sS'MARROW'
p2342
I10
sS'SPONTANEOUS'
p2343
I5
sS'LOLLIPOP'
p2344
I6
sS'MONOPOLY'
p2345
I4
sS'PRAY'
p2346
I0
sS'TREE'
p2347
I6
sS'CHART'
p2348
I1
sS'LENGTH'
p2349
I9
sS'HEARTATTACK'
p2350
I2
sS'CHARM'
p2351
I0
sS'ABSURD'
p2352
I0
sS'JUDGE'
p2353
I3
sS'ADORABLE'
p2354
I10
sS'SOUND'
p2355
I8
sS'TWELVE'
p2356
I5
sS'HUMOR'
p2357
I0
sS'GARDEN'
p2358
I6
sS'WILDERNESS'
p2359
I10
sS'CHALLENGE'
p2360
I8
sS'DOWN'
p2361
I5
sS'GORILLA'
p2362
I10
sS'REPORT'
p2363
I1
sS'COMPLAIN'
p2364
I0
sS'KING'
p2365
I3
sS'KIND'
p2366
I0
sS'CENTER'
p2367
I1
sS'ASSISTANT'
p2368
I4
sS'HAWAII'
p2369
I7
sS'CONTRACTOR'
p2370
I5
sS'MEASURE'
p2371
I9
sS'OBSESSION'
p2372
I4
sS'SALUTE'
p2373
I3
sS'STAGE'
p2374
I8
sS'PAPERTOWEL'
p2375
I7
sS'SCARY'
p2376
I3
sS'FRAUD'
p2377
I3
sS'SPILL'
p2378
I7
sS'KILLER'
p2379
I3
sS'NEPTUNE'
p2380
I5
sS'EWE'
p2381
I10
sS'SAFARI'
p2382
I10
sS'FIERCE'
p2383
I0
sS'SCARE'
p2384
I3
sS'SCARF'
p2385
I11
sS'COBRA'
p2386
I10
sS'BOUND'
p2387
I11
sS'VOW'
p2388
I3
sS'CARAVAN'
p2389
I5
sS'BARREL'
p2390
I6
sS'EDUCATION'
p2391
I1
sS'SMASH'
p2392
I5
sS'ACCOUNT'
p2393
I4
sS'HELPFUL'
p2394
I0
sS'STOP'
p2395
I5
sS'BROKEN'
p2396
I5
sS'PERSUADE'
p2397
I4
sS'IMPOSSIBLE'
p2398
I1
sS'FUR'
p2399
I10
sS'HOLIDAY'
p2400
I6
sS'BANNER'
p2401
I4
sS'GRAY'
p2402
I11
sS'DEFROST'
p2403
I7
sS'BUCKET'
p2404
I6
sS'DIPLOMA'
p2405
I1
sS'FAST'
p2406
I5
sS'CAKE'
p2407
I6
sS'GRAB'
p2408
I4
sS'SCENT'
p2409
I6
sS'GAMBLE'
p2410
I4
sS'AGAIN'
p2411
I1
sS'CUT'
p2412
I2
sS'MITTEN'
p2413
I10
sS'CUP'
p2414
I6
sS'RECEIVE'
p2415
I4
sS'MIND'
p2416
I1
sS'MINE'
p2417
I4
sS'DIET'
p2418
I6
sS'CUE'
p2419
I1
sS'CUB'
p2420
I10
sS'MINT'
p2421
I6
sS'RABBI'
p2422
I0
sS'CONTACTS'
p2423
I1
sS'ABLE'
p2424
I1
sS'WINDING'
p2425
I5
sS'CRAFTS'
p2426
I1
sS'SKINNY'
p2427
I2
sS'COMPULSION'
p2428
I4
sS'SERENE'
p2429
I8
sS'SUPERVISOR'
p2430
I4
sS'SECURE'
p2431
I3
sS'FREEDOM'
p2432
I3
sS'COUNTER'
p2433
I5
sS'CHANGE'
p2434
I4
sS'DAD'
p2435
I0
sS'LOTS'
p2436
I9
sS'DAM'
p2437
I7
sS'LUMBER'
p2438
I2
sS'PETS'
p2439
I10
sS'BROIL'
p2440
I6
sS'DAY'
p2441
I5
sS'DESTRUCTION'
p2442
I7
sS'PAUSE'
p2443
I5
sS'HOTTER'
p2444
I7
sS'ILLEGAL'
p2445
I3
sS'BREAST'
p2446
I0
sS'MIXED'
p2447
I6
sS'ENVY'
p2448
I0
sS'SPADES'
p2449
I4
sS'CARNIVAL'
p2450
I8
sS'SORE'
p2451
I2
sS'SCRATCH'
p2452
I2
sS'INSIDE'
p2453
I5
sS'RAGE'
p2454
I0
sS'ISOLATED'
p2455
I0
sS'BRAN'
p2456
I6
sS'IMAGINATION'
p2457
I1
sS'WARMER'
p2458
I7
sS'DROVE'
p2459
I10
sS'PRINCIPAL'
p2460
I1
sS'STAIRWAY'
p2461
I5
sS'LIFE'
p2462
I1
sS'UNSURE'
p2463
I1
sS'TEASE'
p2464
I0
sS'APPEARANCE'
p2465
I0
sS'SORROW'
p2466
I0
sS'SNATCH'
p2467
I4
sS'TUMOR'
p2468
I2
sS'SIP'
p2469
I6
sS'DRIVEWAY'
p2470
I5
sS'ENGAGE'
p2471
I0
sS'POWER'
p2472
I4
sS'DANCE'
p2473
I8
sS'HUSBAND'
p2474
I0
sS'TINY'
p2475
I9
sS'MUCK'
p2476
I6
sS'MUCH'
p2477
I9
sS'BEHAVIOR'
p2478
I1
sS'STRIP'
p2479
I4
sS'JUPITER'
p2480
I5
sS'CHASE'
p2481
I4
sS'DETECTIVE'
p2482
I3
sS'CRAYOLA'
p2483
I11
sS'SPINACH'
p2484
I6
sS'SEAT'
p2485
I5
sS'RECRUIT'
p2486
I3
sS'TAXES'
p2487
I4
sS'CURRENT'
p2488
I7
sS'DISCREET'
p2489
I3
sS'MINDED'
p2490
I1
sS'GO'
p2491
I4
sS'ENTRY'
p2492
I5
sS'TWISTER'
p2493
I7
sS'APPEAR'
p2494
I4
sS'EMOTION'
p2495
I0
sS'MAP'
p2496
I1
sS'MAT'
p2497
I2
sS'MONEY'
p2498
I4
sS'BRAND'
p2499
I11
sS'HAIRCUT'
p2500
I2
sS'DISGUSTING'
p2501
I6
sS'HONK'
p2502
I8
sS'TERRIFIC'
p2503
I9
sS'NEAR'
p2504
I5
sS'WELL-BEING'
p2505
I0
sS'MAD'
p2506
I0
sS'PROPERTY'
p2507
I4
sS'AGRICULTURE'
p2508
I6
sS'MAN'
p2509
I0
sS'FAITH'
p2510
I0
sS'PATROL'
p2511
I3
sS'PARADE'
p2512
I8
sS'NORMAL'
p2513
I9
sS'VOLUME'
p2514
I8
sS'COUSIN'
p2515
I0
sS'JUMPY'
p2516
I0
sS'VOICE'
p2517
I8
sS'DARKNESS'
p2518
I5
sS'ROPE'
p2519
I11
sS'GUARD'
p2520
I3
sS'CAMERA'
p2521
I1
sS'PROPOSAL'
p2522
I1
sS'COUNT'
p2523
I9
sS'SOLO'
p2524
I8
sS'FOLLY'
p2525
I0
sS'GLORY'
p2526
I0
sS'PARIS'
p2527
I0
sS'PUDDLE'
p2528
I7
sS'SOLE'
p2529
I11
sS'HAZARD'
p2530
I0
sS'DIGESTION'
p2531
I6
sS'SPOILED'
p2532
I6
sS'ACTIVE'
p2533
I2
sS'MYTHOLOGY'
p2534
I1
sS'GIVING'
p2535
I0
sS'CONTROLS'
p2536
I5
sS'EVENT'
p2537
I8
sS'PROPRIETOR'
p2538
I4
sS'TRAFFIC'
p2539
I5
sS'THINGS'
p2540
I4
sS'ATTEND'
p2541
I4
sS'INTERESTING'
p2542
I1
sS'CONSOLE'
p2543
I9
sS'METEORITE'
p2544
I5
sS'TISSUE'
p2545
I0
sS'OUTLET'
p2546
I5
sS'POPULAR'
p2547
I4
sS'SMILE'
p2548
I0
sS'STENCH'
p2549
I6
sS'INTUITION'
p2550
I1
sS'CHOWDER'
p2551
I6
sS'SECRET'
p2552
I1
sS'SPARE'
p2553
I4
sS'ANTLER'
p2554
I10
sS'MAFIA'
p2555
I3
sS'ANCHOR'
p2556
I7
sS'GHOST'
p2557
I3
sS'STUBBORN'
p2558
I0
sS'DISTURB'
p2559
I0
sS'PLAID'
p2560
I11
sS'TUPPERWARE'
p2561
I6
sS'PACKAGE'
p2562
I4
sS'PLAIN'
p2563
I11
sS'BRUISE'
p2564
I2
sS'CLIPPERS'
p2565
I2
sS'JUMP'
p2566
I5
sS'YOKE'
p2567
I11
sS'DOVE'
p2568
I10
sS'GLASSES'
p2569
I1
sS'EVEN'
p2570
I5
sS'VOYAGE'
p2571
I7
sS'PRONOUN'
p2572
I1
sS'INSPECT'
p2573
I1
sS'PEANUTBUTTER'
p2574
I6
sS'BOTTLE'
p2575
I6
sS'ORE'
p2576
I4
sS'EVER'
p2577
I5
sS'NOON'
p2578
I5
sS'ENDLESS'
p2579
I5
sS'BURIAL'
p2580
I2
sS'FARM'
p2581
I6
sS'CALCULATOR'
p2582
I1
sS'WRAP'
p2583
I11
sS'BEARD'
p2584
I0
sS'DESIRE'
p2585
I4
sS'BRUSH'
p2586
I2
sS'FEVER'
p2587
I2
sS'SQUID'
p2588
I6
sS'HARBOR'
p2589
I7
sS'ROOSTER'
p2590
I6
sS'FANTASY'
p2591
I3
sS'VIRUS'
p2592
I2
sS'ACORN'
p2593
I6
sS'PANEL'
p2594
I9
sS'FORK'
p2595
I6
sS'SKETCH'
p2596
I1
sS'FORM'
p2597
I1
sS'RADISH'
p2598
I6
sS'SUNSHINE'
p2599
I5
sS'BLESS'
p2600
I0
sS'UNEASY'
p2601
I0
sS'CANYON'
p2602
I7
sS'DEVICE'
p2603
I5
sS'EXCITING'
p2604
I8
sS'TOMORROW'
p2605
I5
sS'SMART'
p2606
I1
sS'FORT'
p2607
I3
sS'ELECT'
p2608
I3
sS'GRAFT'
p2609
I1
sS'CALL'
p2610
I8
sS'CALM'
p2611
I0
sS'ANIMAL'
p2612
I10
sS'NERVES'
p2613
I0
sS'CALF'
p2614
I2
sS'HOTDOGS'
p2615
I6
sS'BOILED'
p2616
I6
sS'PREJUDICE'
p2617
I3
sS'DASHBOARD'
p2618
I5
sS'FLIPPER'
p2619
I7
sS'TELLER'
p2620
I4
sS'HEAVY'
p2621
I4
sS'PROVIDENCE'
p2622
I3
sS'SWIMMER'
p2623
I7
sS'SAD'
p2624
I0
sS'FANGS'
p2625
I3
sS'SAY'
p2626
I1
sS'SPEECH'
p2627
I1
sS'SAP'
p2628
I6
sS'SAW'
p2629
I2
sS'BIRDS'
p2630
I10
sS'CONDITION'
p2631
I1
sS'ZIT'
p2632
I0
sS'SHOCK'
p2633
I5
sS'SHRUB'
p2634
I6
sS'MAGGOT'
p2635
I10
sS'JAW'
p2636
I6
sS'FELT'
p2637
I2
sS'JAR'
p2638
I6
sS'SAMPLE'
p2639
I1
sS'BUTLER'
p2640
I4
sS'FELL'
p2641
I5
sS'CRAYON'
p2642
I11
sS'DELICATE'
p2643
I6
sS'LEARNING'
p2644
I1
sS'HORN'
p2645
I8
sS'WHISTLE'
p2646
I8
sS'CLAIM'
p2647
I4
sS'PROSPER'
p2648
I4
sS'COMBINATION'
p2649
I6
sS'MONASTERY'
p2650
I0
sS'UNLAWFUL'
p2651
I3
sS'SPANK'
p2652
I2
sS'PEST'
p2653
I10
sS'IMPLODE'
p2654
I8
sS'MARGIN'
p2655
I1
sS'SILENT'
p2656
I8
sS'ASTROLOGY'
p2657
I1
sS'HORSE'
p2658
I10
sS'EMPATHY'
p2659
I0
sS'SKELETON'
p2660
I2
sS'FAIRYTALE'
p2661
I3
sS'SOME'
p2662
I9
sS'ESCARGOT'
p2663
I6
sS'INDIRECT'
p2664
I1
sS'WINDSHIELD'
p2665
I7
sS'OCCUPIED'
p2666
I7
sS'DESERT'
p2667
I7
sS'NAUSEA'
p2668
I6
sS'ESSAY'
p2669
I1
sS'BEGIN'
p2670
I1
sS'CHEMISTRY'
p2671
I1
sS'TELESCOPE'
p2672
I1
sS'WEDDING'
p2673
I0
sS'COMMUNICATE'
p2674
I1
sS'CHARGE'
p2675
I4
sS'REFRAIN'
p2676
I8
sS'QUIT'
p2677
I4
sS'SOCIETY'
p2678
I0
sS'BLANK'
p2679
I1
sS'SHARP'
p2680
I2
sS'PHYSICAL'
p2681
I2
sS'TEMPLE'
p2682
I0
sS'ASS'
p2683
I10
sS'JERK'
p2684
I0
sS'HANDCUFFS'
p2685
I3
sS'POSSIBLE'
p2686
I1
sS'CLUMSY'
p2687
I0
sS'COMPOUND'
p2688
I7
sS'PLUSH'
p2689
I10
sS'PURSE'
p2690
I4
sS'CREW'
p2691
I7
sS'AMERICAN'
p2692
I3
sS'ERUPT'
p2693
I8
sS'CARDINAL'
p2694
I0
sS'TIME'
p2695
I5
sS'JAPAN'
p2696
I3
sS'VIEW'
p2697
I1
sS'APPRAISE'
p2698
I4
sS'BISON'
p2699
I10
sS'SWAN'
p2700
I10
sS'AGONY'
p2701
I0
sS'SECTION'
p2702
I9
sS'SPOTS'
p2703
I10
sS'AIDS'
p2704
I2
sS'GENEROUS'
p2705
I4
sS'AREA'
p2706
I3
sS'TRADE'
p2707
I4
sS'CONVINCE'
p2708
I1
sS'SERMON'
p2709
I0
sS'BELIEVE'
p2710
I3
sS'ONCE'
p2711
I5
sS'DANGEROUS'
p2712
I0
sS'WORKER'
p2713
I4
sS'FREEZE'
p2714
I7
sS'TOOTHBRUSH'
p2715
I2
sS'PEDESTRIAN'
p2716
I5
sS'DONATION'
p2717
I4
sS'PARCHED'
p2718
I7
sS'SYNOPSIS'
p2719
I1
sS'SENATOR'
p2720
I3
sS'CLIMB'
p2721
I5
sS'BLEND'
p2722
I6
sS'CHANNEL'
p2723
I1
sS'WAIT'
p2724
I5
sS'STILL'
p2725
I5
sS'POACH'
p2726
I6
sS'BREAK'
p2727
I5
sS'BATTERY'
p2728
I5
sS'TUB'
p2729
I7
sS'TUG'
p2730
I4
sS'BRIDGE'
p2731
I7
sS'TRANQUIL'
p2732
I8
sS'BEGINNER'
p2733
I4
sS'UNHAPPY'
p2734
I0
sS'DETAIL'
p2735
I1
sS'DIAPER'
p2736
I0
sS'SHADOW'
p2737
I5
sS'UNIVERSITY'
p2738
I1
sS'CAMP'
p2739
I10
sS'DRIFT'
p2740
I7
sS'LAMP'
p2741
I5
sS'DRAWING'
p2742
I1
sS'JAIL'
p2743
I3
sS'SKYSCRAPER'
p2744
I5
sS'OUTDOORS'
p2745
I10
sS'EMBARRASS'
p2746
I0
sS'EXTINCT'
p2747
I2
sS'DIVORCE'
p2748
I0
sS'SLOPPY'
p2749
I6
sS'HEAD&SHOULDERS'
p2750
I2
sS'MILD'
p2751
I0
sS'MILE'
p2752
I9
sS'RELATION'
p2753
I0
sS'CHECKBOOK'
p2754
I4
sS'SKIN'
p2755
I2
sS'MILL'
p2756
I6
sS'TWEEZERS'
p2757
I2
sS'TEAPOT'
p2758
I6
sS'VAST'
p2759
I9
sS'GROUND'
p2760
I6
sS'ILLNESS'
p2761
I2
sS'DICE'
p2762
I9
sS'KLEENEX'
p2763
I0
sS'STRAWBERRY'
p2764
I6
sS'SLEEP'
p2765
I5
sS'RECOGNITION'
p2766
I4
sS'ADVERTISEMENT'
p2767
I4
sS'NICE'
p2768
I0
sS'ENGINE'
p2769
I5
sS'POSTAGE'
p2770
I4
sS'PENNY'
p2771
I4
sS'PAT'
p2772
I2
sS'PAW'
p2773
I10
sS'PAY'
p2774
I4
sS'FOLLOWER'
p2775
I0
sS'GLOOMY'
p2776
I5
sS'PAD'
p2777
I1
sS'STEAK'
p2778
I6
sS'PAL'
p2779
I0
sS'STEAM'
p2780
I6
sS'PAN'
p2781
I6
sS'COMMENT'
p2782
I1
sS'LAPEL'
p2783
I11
sS'SLOGAN'
p2784
I4
sS'NAIVE'
p2785
I0
sS'DETERMINE'
p2786
I1
sS'PICKLE'
p2787
I6
sS'LAST'
p2788
I1
sS'WEB'
p2789
I6
sS'WED'
p2790
I0
sS'TRUNK'
p2791
I4
sS'BRIEF'
p2792
I1
sS'SIGN'
p2793
I1
sS'JOKER'
p2794
I0
sS'FAVOR'
p2795
I4
sS'CHIEF'
p2796
I3
sS'EXTRAVAGANT'
p2797
I9
sS'WET'
p2798
I7
sS'OBSCURE'
p2799
I1
sS'SAUCE'
p2800
I6
sS'GALAXY'
p2801
I5
sS'OIL'
p2802
I6
sS'REGION'
p2803
I3
sS'ROMAN'
p2804
I3
sS'PIRATE'
p2805
I7
sS'PADDING'
p2806
I5
sS'FREQUENCY'
p2807
I9
sS'TANGENT'
p2808
I5
sS'PERSONNEL'
p2809
I4
sS'NEURON'
p2810
I1
sS'LAZY'
p2811
I5
sS'INVENT'
p2812
I1
sS'LARGE'
p2813
I9
sS'PROPER'
p2814
I0
sS'SUCK'
p2815
I6
sS'HUNDRED'
p2816
I4
sS'SNEEZE'
p2817
I2
sS'CHEMIST'
p2818
I1
sS'IDENTICAL'
p2819
I9
sS'SEARCH'
p2820
I4
sS'BUY'
p2821
I4
sS'MEEK'
p2822
I0
sS'AUTHOR'
p2823
I1
sS'BUS'
p2824
I5
sS'RIDE'
p2825
I5
sS'BOXING'
p2826
I8
sS'POSSIBILITY'
p2827
I1
sS'TILL'
p2828
I6
sS'SCOUT'
p2829
I10
sS'BUN'
p2830
I6
sS'SANDPAPER'
p2831
I0
sS'BUM'
p2832
I4
sS'TILE'
p2833
I5
sS'MEET'
p2834
I4
sS'NUMEROUS'
p2835
I9
sS'BUG'
p2836
I10
sS'BUD'
p2837
I6
sS'INCORRECT'
p2838
I3
sS'SECLUDED'
p2839
I0
sS'FINISH'
p2840
I1
sS'LOVE'
p2841
I0
sS'PENDULUM'
p2842
I5
sS'GUILT'
p2843
I3
sS'CEREAL'
p2844
I6
sS'LODGE'
p2845
I2
sS'SEXY'
p2846
I0
sS'PUPPY'
p2847
I10
sS'BREAKFAST'
p2848
I6
sS'VICTOR'
p2849
I4
sS'FINANCIAL'
p2850
I4
sS'NECK'
p2851
I2
sS'BUTTON'
p2852
I11
sS'MOP'
p2853
I7
sS'MOW'
p2854
I6
sS'FORGIVE'
p2855
I0
sS'COLOGNE'
p2856
I6
sS'EARRING'
p2857
I11
sS'MOO'
p2858
I10
sS'MOM'
p2859
I0
sS'ALONE'
p2860
I0
sS'MOB'
p2861
I3
sS'SELLER'
p2862
I4
sS'MAILMAN'
p2863
I4
sS'STREAM'
p2864
I7
sS'SEIZE'
p2865
I4
sS'LADDER'
p2866
I5
sS'CRUNCHY'
p2867
I6
sS'NONSENSE'
p2868
I0
sS'SWEEP'
p2869
I7
sS'VENOM'
p2870
I10
sS'SPIKE'
p2871
I2
sS'TRIANGLE'
p2872
I5
sS'ORCHID'
p2873
I6
sS'DAUGHTER'
p2874
I0
sS'ABILITY'
p2875
I1
sS'VISITOR'
p2876
I4
sS'TORN'
p2877
I11
sS'CAPTAIN'
p2878
I3
sS'ARRIVE'
p2879
I4
sS'WITHDRAWN'
p2880
I0
sS'EXERCISE'
p2881
I2
sS'CUNNING'
p2882
I3
sS'RAZOR'
p2883
I2
sS'DEPART'
p2884
I4
sS'ASHES'
p2885
I7
sS'HOLLER'
p2886
I8
sS'UNSEEN'
p2887
I1
sS'FLICK'
p2888
I2
sS'MAJOR'
p2889
I3
sS'CABOOSE'
p2890
I5
sS'HONEST'
p2891
I3
sS'BLACK'
p2892
I11
sS'PUBLIC'
p2893
I1
sS'ELEMENTS'
p2894
I7
sS'VARY'
p2895
I9
sS'ANTELOPE'
p2896
I10
sS'REALITY'
p2897
I3
sS'CALCIUM'
p2898
I6
sS'AIRCRAFT'
p2899
I5
sS'LEARN'
p2900
I1
sS'LEGEND'
p2901
I1
sS'RAPE'
p2902
I3
sS'PIZZA'
p2903
I6
sS'SKUNK'
p2904
I10
sS'APPOINTMENT'
p2905
I4
sS'CONTEST'
p2906
I8
sS'REVENGE'
p2907
I0
sS'RECORD'
p2908
I8
sS'NOMAD'
p2909
I4
sS'BARLEY'
p2910
I6
sS'ANOTHER'
p2911
I9
sS'WICK'
p2912
I5
sS'UNSOLVED'
p2913
I1
sS'LONELY'
p2914
I0
sS'BURN'
p2915
I7
sS'DISHONEST'
p2916
I3
sS'TACT'
p2917
I0
sS'FAMINE'
p2918
I6
sS'BELOW'
p2919
I5
sS'LEADERSHIP'
p2920
I4
sS'WARRIOR'
p2921
I0
sS'ESTIMATE'
p2922
I4
sS'GHOUL'
p2923
I3
sS'DISHWASHER'
p2924
I7
sS'GEYSER'
p2925
I7
sS'GIFTED'
p2926
I0
sS'FOCUS'
p2927
I1
sS'PEPSI'
p2928
I6
sS'BIG'
p2929
I9
sS'EXHALE'
p2930
I7
sS'TRUST'
p2931
I3
sS'IDOL'
p2932
I0
sS'CANE'
p2933
I2
sS'MURDERER'
p2934
I3
sS'FATE'
p2935
I1
sS'DOLL'
p2936
I0
sS'BRIDE'
p2937
I0
sS'BINDER'
p2938
I1
sS'INTERVIEW'
p2939
I0
sS'CHAMPAGNE'
p2940
I6
sS'MINUS'
p2941
I9
sS'REFRIGERATOR'
p2942
I7
sS'RESPOND'
p2943
I1
sS'FLOWER'
p2944
I6
sS'MINTS'
p2945
I6
sS'KEEP'
p2946
I4
sS'AGENDA'
p2947
I1
sS'MECHANICAL'
p2948
I5
sS'CASTLE'
p2949
I3
sS'VALLEY'
p2950
I7
sS'VAGUE'
p2951
I1
sS'EXPENSIVE'
p2952
I4
sS'COMPUTE'
p2953
I1
sS'OVERVIEW'
p2954
I1
sS'WELFARE'
p2955
I4
sS'WOUND'
p2956
I2
sS'FEATURE'
p2957
I1
sS'WIN'
p2958
I4
sS'BALANCE'
p2959
I9
sS'MAYOR'
p2960
I3
sS'ACCOMPLISH'
p2961
I4
sS'LIPSTICK'
p2962
I0
sS'RAISIN'
p2963
I6
sS'OBSTACLE'
p2964
I5
sS'GRAVE'
p2965
I2
sS'SACRED'
p2966
I0
sS'WANTED'
p2967
I3
sS'DISPERSE'
p2968
I4
sS'LEGISLATURE'
p2969
I3
sS'JIGSAW'
p2970
I2
sS'PAIN'
p2971
I2
sS'PAIL'
p2972
I6
sS'SUPPORT'
p2973
I0
sS'MOUSSE'
p2974
I10
sS'DETERGENT'
p2975
I7
sS'PRICKLY'
p2976
I2
sS'GAMES'
p2977
I8
sS'PEPPERONI'
p2978
I6
sS'PAIR'
p2979
I11
sS'KNEE'
p2980
I2
sS'HE'
p2981
I0
sS'HEAVEN'
p2982
I0
sS'DISHES'
p2983
I7
sS'RITUAL'
p2984
I0
sS'TERRIBLE'
p2985
I0
sS'REGULATION'
p2986
I1
sS'BRAKE'
p2987
I5
sS'CONNECT'
p2988
I11
sS'FOSSIL'
p2989
I5
sS'GRANDPARENTS'
p2990
I0
sS'WART'
p2991
I2
sS'PATRIOTIC'
p2992
I3
sS'FRIES'
p2993
I6
sS'COURSE'
p2994
I1
sS'FRIED'
p2995
I6
sS'MACHINE'
p2996
I5
sS'DIGIT'
p2997
I1
sS'WHEAT'
p2998
I6
sS'ASPHALT'
p2999
I5
sS'GEOMETRY'
p3000
I5
sS'SENSE'
p3001
I1
sS'HELICOPTER'
p3002
I5
sS'QUALITY'
p3003
I4
sS'RESEARCH'
p3004
I1
sS'OPPONENT'
p3005
I8
sS'EATING'
p3006
I6
sS'PARDON'
p3007
I0
sS'DEER'
p3008
I10
sS'DEEP'
p3009
I7
sS'TWICE'
p3010
I9
sS'GAME'
p3011
I8
sS'SAXOPHONE'
p3012
I8
sS'PLENTY'
p3013
I9
sS'MIRAGE'
p3014
I1
sS'CLIMATE'
p3015
I7
sS'PONDER'
p3016
I1
sS'SLOW'
p3017
I5
sS'FREAK'
p3018
I9
sS'POTATOES'
p3019
I6
sS'BACON'
p3020
I6
sS'CARPENTER'
p3021
I5
sS'THINK'
p3022
I1
sS'PIPE'
p3023
I7
sS'ECSTASY'
p3024
I0
sS'SHAPE'
p3025
I5
sS'RINSE'
p3026
I7
sS'SLOB'
p3027
I6
sS'MOTEL'
p3028
I4
sS'DIGNITY'
p3029
I0
sS'LICK'
p3030
I6
sS'CONCLUDE'
p3031
I1
sS'MENTHOL'
p3032
I6
sS'CLAY'
p3033
I6
sS'LICE'
p3034
I10
sS'WRITE'
p3035
I1
sS'ADD'
p3036
I9
sS'HUSK'
p3037
I6
sS'HARMONY'
p3038
I8
sS'ORGANIZATION'
p3039
I7
sS'CONSEQUENCE'
p3040
I1
sS'PROBLEM'
p3041
I1
sS'LIMOUSINE'
p3042
I5
sS'BEER'
p3043
I6
sS'COOKOUT'
p3044
I6
sS'ANTEATER'
p3045
I10
sS'ALGEBRA'
p3046
I1
sS'SOLUTION'
p3047
I1
sS'RIDICULOUS'
p3048
I0
sS'ARCHITECTURE'
p3049
I5
sS'BRA'
p3050
I11
sS'DESCEND'
p3051
I5
sS'DRUG'
p3052
I2
sS'JUNK'
p3053
I6
sS'WALK'
p3054
I5
sS'CANDIDATE'
p3055
I3
sS'TUXEDO'
p3056
I11
sS'CHARACTER'
p3057
I1
sS'NUMBER'
p3058
I9
sS'LOYAL'
p3059
I3
sS'HYPOTHESIS'
p3060
I1
sS'BACKGROUND'
p3061
I1
sS'PARKWAY'
p3062
I5
sS'PLAYTHING'
p3063
I0
sS'OFTEN'
p3064
I9
sS'VEER'
p3065
I5
sS'SHOELACE'
p3066
I11
sS'NOVICE'
p3067
I1
sS'ALLEY'
p3068
I5
sS'PRAIRIE'
p3069
I6
sS'TEST'
p3070
I1
sS'VOODOO'
p3071
I0
sS'PROFESSIONAL'
p3072
I4
sS'CYCLE'
p3073
I5
sS'SHOP'
p3074
I4
sS'SHOT'
p3075
I2
sS'SHOW'
p3076
I1
sS'SUGGEST'
p3077
I1
sS'PROFESSOR'
p3078
I1
sS'METAL'
p3079
I4
sS'VALUE'
p3080
I4
sS'WAKE'
p3081
I5
sS'SHOE'
p3082
I11
sS'QUARTER'
p3083
I4
sS'SCARECROW'
p3084
I6
sS'DECADE'
p3085
I5
sS'NEGOTIATION'
p3086
I4
sS'POUND'
p3087
I9
sS'PUBERTY'
p3088
I0
sS'BRAWL'
p3089
I0
sS'VALENTINE'
p3090
I0
sS'GARAGE'
p3091
I9
sS'TOUR'
p3092
I4
sS'RACQUET'
p3093
I8
sS'RYE'
p3094
I6
sS'OBTAIN'
p3095
I4
sS'OUNCE'
p3096
I9
sS'DIRECTION'
p3097
I1
sS'PRINTER'
p3098
I1
sS'DANDRUFF'
p3099
I2
sS'WAND'
p3100
I11
sS'ARTIST'
p3101
I1
sS'SPIN'
p3102
I5
sS'ELEGANT'
p3103
I0
sS'GALOSHES'
p3104
I11
sS'PRINTING'
p3105
I1
sS'SANTA'
p3106
I4
sS'DEFINE'
p3107
I1
sS'FULL'
p3108
I9
sS'CORAL'
p3109
I7
sS'INSTRUCTION'
p3110
I1
sS'FUNGI'
p3111
I6
sS'CRITERION'
p3112
I1
sS'SAINT'
p3113
I0
sS'DISREGARD'
p3114
I0
sS'COYOTE'
p3115
I10
sS'FEELING'
p3116
I0
sS'LEASE'
p3117
I4
sS'DIAL'
p3118
I8
sS'REVIEW'
p3119
I1
sS'RASH'
p3120
I2
sS'WILL'
p3121
I4
sS'COURAGE'
p3122
I0
sS'AWAKE'
p3123
I5
sS'WILD'
p3124
I10
sS'UNJUST'
p3125
I3
sS'VAIN'
p3126
I0
sS'HILARIOUS'
p3127
I0
sS'CRUTCH'
p3128
I2
sS'MERMAID'
p3129
I7
sS'CENTS'
p3130
I4
sS'MISTER'
p3131
I0
sS'COMPANY'
p3132
I4
sS'MODEST'
p3133
I0
sS'GRADUATION'
p3134
I1
sS'HARDY'
p3135
I0
sS'RELIEF'
p3136
I2
sS'SLEIGH'
p3137
I7
sS'MUST'
p3138
I4
sS'WEEKEND'
p3139
I5
sS'FREQUENT'
p3140
I9
sS'FAWN'
p3141
I10
sS'DOOR'
p3142
I5
sS'CRACKLE'
p3143
I8
sS'MISERY'
p3144
I0
sS'HIP'
p3145
I2
sS'TWIN'
p3146
I9
sS'INDIVIDUAL'
p3147
I0
sS'CHICK'
p3148
I0
sS'BRICK'
p3149
I5
sS'TWIG'
p3150
I6
sS'BANQUET'
p3151
I6
sS'HYPER'
p3152
I0
sS'ACQUIRE'
p3153
I4
sS'TEND'
p3154
I5
sS'INN'
p3155
I4
sS'SOCIAL'
p3156
I4
sS'CANVASS'
p3157
I11
sS'ORANGEJUICE'
p3158
I6
sS'TENT'
p3159
I10
sS'SHOVEL'
p3160
I6
sS'HURT'
p3161
I2
sS'OPERATOR'
p3162
I4
sS'CLOG'
p3163
I7
sS'CARING'
p3164
I0
sS'CHRIST'
p3165
I0
sS'ETERNITY'
p3166
I5
sS'TROPICAL'
p3167
I7
sS'MACARONI'
p3168
I6
sS'PATTERN'
p3169
I11
sS'MEDICINE'
p3170
I2
sS'TRUMPET'
p3171
I8
sS'PRESENCE'
p3172
I2
sS'OATMEAL'
p3173
I6
sS'UNTRUTHFUL'
p3174
I3
sS'RACKET'
p3175
I8
sS'REPLY'
p3176
I1
sS'BUFFALO'
p3177
I10
sS'POEM'
p3178
I1
sS'SITTING'
p3179
I5
sS'SHOVE'
p3180
I4
sS'MUSEUM'
p3181
I1
sS'PLEASE'
p3182
I4
sS'QUIZ'
p3183
I4
sS'ACCOMPLISHED'
p3184
I4
sS'SYMPHONY'
p3185
I8
sS'CHOOSE'
p3186
I9
sS'POET'
p3187
I1
sS'UNDERSTAND'
p3188
I1
sS'HUNGER'
p3189
I6
sS'MARBLE'
p3190
I5
sS'PICTURE'
p3191
I1
sS'EDUCATE'
p3192
I1
sS'DANGER'
p3193
I0
sS'NO'
p3194
I3
sS'WILLING'
p3195
I0
sS'ERA'
p3196
I5
sS'NATURAL'
p3197
I10
sS'ROBIN'
p3198
I10
sS'BLUEPRINT'
p3199
I5
sS'BRAVE'
p3200
I0
sS'TORTURE'
p3201
I2
sS'BONUS'
p3202
I4
sS'MEANINGFUL'
p3203
I3
sS'RHYME'
p3204
I8
sS'TOGETHER'
p3205
I11
sS'CELL'
p3206
I1
sS'SPOTLESS'
p3207
I7
sS'DITCH'
p3208
I6
sS'OFF'
p3209
I5
sS'CANCER'
p3210
I2
sS'FEAST'
p3211
I6
sS'REST'
p3212
I5
sS'TOASTY'
p3213
I6
sS'SHOUT'
p3214
I8
sS'GANG'
p3215
I3
sS'SILVERWARE'
p3216
I6
sS'SNOTTY'
p3217
I0
sS'FIREPLACE'
p3218
I7
sS'CRUISE'
p3219
I7
sS'SUCCEED'
p3220
I4
sS'HEALTH'
p3221
I2
sS'HANDS'
p3222
I2
sS'GENE'
p3223
I0
sS'WAGON'
p3224
I5
sS'COUNSEL'
p3225
I9
sS'LITTER'
p3226
I6
sS'DIFFICULTY'
p3227
I0
sS'SEASHORE'
p3228
I7
sS'FILE'
p3229
I4
sS'MICE'
p3230
I10
sS'BORED'
p3231
I0
sS'SPEND'
p3232
I4
sS'FILM'
p3233
I3
sS'FILL'
p3234
I9
sS'PIKE'
p3235
I5
sS'DEBT'
p3236
I4
sS'BICYCLE'
p3237
I5
sS'SERVICE'
p3238
I3
sS'SNAIL'
p3239
I10
sS'HOLINESS'
p3240
I0
sS'TUESDAY'
p3241
I5
sS'PUNCH'
p3242
I2
sS'GERM'
p3243
I2
sS'DELIGHT'
p3244
I0
sS'SUN'
p3245
I5
sS'FOGGY'
p3246
I5
sS'EMPTY'
p3247
I9
sS'COCOON'
p3248
I10
sS'MYTH'
p3249
I3
sS'AVOID'
p3250
I0
sS'ABNORMAL'
p3251
I9
sS'RODENT'
p3252
I10
sS'MAROON'
p3253
I11
sS'PISTON'
p3254
I5
sS'LOTTERY'
p3255
I4
sS'BALLOT'
p3256
I3
sS'PISTOL'
p3257
I2
sS'ENGLAND'
p3258
I3
sS'EYELASH'
p3259
I0
sS'TRAIT'
p3260
I0
sS'CHAIRPERSON'
p3261
I4
sS'TOPIC'
p3262
I1
sS'TRAIL'
p3263
I10
sS'TRAIN'
p3264
I5
sS'DEGRADE'
p3265
I0
sS'ERASER'
p3266
I11
sS'OFFEND'
p3267
I0
sS'KICK'
p3268
I2
sS'BEGGAR'
p3269
I4
sS'RAINBOW'
p3270
I0
sS'SPLINTER'
p3271
I2
sS'GREASE'
p3272
I6
sS'DONE'
p3273
I1
sS'BRIBE'
p3274
I3
sS'FINAL'
p3275
I1
sS'MOUNTAIN'
p3276
I5
sS'MADE'
p3277
I6
sS'CABLE'
p3278
I5
sS'HOROSCOPE'
p3279
I1
sS'DEADLY'
p3280
I2
sS'TAIL'
p3281
I10
sS'OBSERVE'
p3282
I1
sS'EIGHT'
p3283
I9
sS'CORRIDOR'
p3284
I5
sS'MATE'
p3285
I0
sS'VELOCITY'
p3286
I1
sS'METRIC'
p3287
I9
sS'END'
p3288
I1
sS'AROUND'
p3289
I5
sS'VENUS'
p3290
I5
sS'ANTLERS'
p3291
I10
sS'PROTESTANT'
p3292
I0
sS'LEAF'
p3293
I6
sS'LEAD'
p3294
I4
sS'LEAK'
p3295
I7
sS'LEAN'
p3296
I5
sS'STRICT'
p3297
I0
sS'LEAP'
p3298
I5
sS'MOSQUITO'
p3299
I10
sS'DRACULA'
p3300
I3
sS'DOMINATE'
p3301
I4
sS'INTEGRITY'
p3302
I3
sS'TOILET'
p3303
I7
sS'NAUSEOUS'
p3304
I6
sS'MISCHIEF'
p3305
I3
sS'LEDGE'
p3306
I5
sS'THUNDER'
p3307
I8
sS'POLITE'
p3308
I0
sS'SCRAMBLED'
p3309
I6
sS'UNAWARE'
p3310
I1
sS'PUMPKIN'
p3311
I6
sS'ANTIQUE'
p3312
I4
sS'SET'
p3313
I1
sS'THIGH'
p3314
I2
sS'HOUR'
p3315
I5
sS'COLUMN'
p3316
I1
sS'THESAURUS'
p3317
I1
sS'FANCY'
p3318
I11
sS'SEX'
p3319
I0
sS'PLANET'
p3320
I5
sS'BRAIN'
p3321
I1
sS'SEE'
p3322
I1
sS'SEA'
p3323
I7
sS'OFFENSE'
p3324
I3
sS'SASH'
p3325
I11
sS'PRESENT'
p3326
I4
sS'REVOLUTION'
p3327
I3
sS'MAIDEN'
p3328
I0
sS'SPINE'
p3329
I2
sS'PUZZLE'
p3330
I1
sS'SUBMARINE'
p3331
I7
sS'PROTON'
p3332
I1
sS'DAWN'
p3333
I5
sS'HAMMER'
p3334
I2
sS'WHIP'
p3335
I2
sS'CLAMP'
p3336
I5
sS'ADJECTIVE'
p3337
I1
sS'HAIL'
p3338
I7
sS'BOTHER'
p3339
I0
sS'WORRY'
p3340
I0
sS'GOWN'
p3341
I11
sS'ANTENNA'
p3342
I8
sS'ABSTRACT'
p3343
I1
sS'CRIB'
p3344
I0
sS'MULE'
p3345
I10
sS'TRIAL'
p3346
I3
sS'OUTSIDE'
p3347
I5
sS'CONTACT'
p3348
I1
sS'CALIFORNIA'
p3349
I7
sS'BASIC'
p3350
I0
sS'EMPIRE'
p3351
I3
sS'ZIPPER'
p3352
I11
sS'INCLINE'
p3353
I5
sS'QUESTION'
p3354
I1
sS'SCUBA'
p3355
I7
sS'FASCISM'
p3356
I3
sS'COMPASS'
p3357
I1
sS'SPAGHETTI'
p3358
I6
sS'ORIGINAL'
p3359
I1
sS'BANDANNA'
p3360
I11
sS'GOO'
p3361
I6
sS'SUICIDE'
p3362
I2
sS'LIAR'
p3363
I3
sS'GOD'
p3364
I0
sS'STOMACH'
p3365
I6
sS'HEIGHT'
p3366
I9
sS'DISBELIEVE'
p3367
I3
sS'OUTFOX'
p3368
I3
sS'RECOMMEND'
p3369
I1
sS'IMMORAL'
p3370
I3
sS'TURKEY'
p3371
I6
sS'CITY'
p3372
I3
sS'CONCEPT'
p3373
I1
sS'VICE'
p3374
I3
sS'SWABS'
p3375
I11
sS'GRIEF'
p3376
I0
sS'BOOZE'
p3377
I6
sS'ANATOMY'
p3378
I2
sS'BUREAU'
p3379
I5
sS'YOGURT'
p3380
I6
sS'KNITTING'
p3381
I11
sS'BREED'
p3382
I10
sS'THOUGHT'
p3383
I1
sS'BELLY'
p3384
I6
sS'PRAYER'
p3385
I0
sS'SOUTH'
p3386
I7
sS'KIDS'
p3387
I8
sS'HUMID'
p3388
I7
sS'FAITHFUL'
p3389
I3
sS'SNEAKY'
p3390
I3
sS'BORDER'
p3391
I5
sS'STUCKUP'
p3392
I0
sS'BUSH'
p3393
I6
sS'IMPORTANT'
p3394
I1
sS'HEDGE'
p3395
I6
sS'BULLETIN'
p3396
I1
sS'PATRIOT'
p3397
I3
sS'LEVEL'
p3398
I5
sS'NATIONAL'
p3399
I3
sS'PAST'
p3400
I1
sS'ENTER'
p3401
I5
sS'LEVER'
p3402
I4
sS'OPERATE'
p3403
I2
sS'BLUNT'
p3404
I0
sS'SILVER'
p3405
I4
sS'AWARENESS'
p3406
I1
sS'THRIFT'
p3407
I4
sS'TOWN'
p3408
I3
sS'SCHOOL'
p3409
I1
sS'AFTER'
p3410
I5
sS'MATURE'
p3411
I0
sS'RETARDED'
p3412
I0
sS'COMBINE'
p3413
I11
sS'COOKBOOK'
p3414
I6
sS'FLUTTER'
p3415
I10
sS'POLYESTER'
p3416
I11
sS'ESCALATOR'
p3417
I5
sS'DISBELIEF'
p3418
I3
sS'BELL'
p3419
I8
sS'MARRY'
p3420
I0
sS'FAMOUS'
p3421
I4
sS'COMPLEX'
p3422
I0
sS'VALOR'
p3423
I0
sS'AIRPLANE'
p3424
I5
sS'PISSED'
p3425
I0
sS'BELT'
p3426
I11
sS'EAGLE'
p3427
I10
sS'ROOM'
p3428
I5
sS'POCKETBOOK'
p3429
I4
sS'RESPONSIBILITY'
p3430
I4
sS'ROOF'
p3431
I5
sS'PARTICIPATE'
p3432
I1
sS'ADVISE'
p3433
I1
sS'NOODLES'
p3434
I6
sS'STIR'
p3435
I6
sS'PUBLISHER'
p3436
I1
sS'STAIR'
p3437
I5
sS'CYLINDER'
p3438
I5
sS'ALMOND'
p3439
I6
sS'CHUCK'
p3440
I6
sS'LIBERTY'
p3441
I3
sS'FUND'
p3442
I4
sS'WORSHIP'
p3443
I0
sS'CARDS'
p3444
I4
sS'STAIN'
p3445
I11
sS'TODAY'
p3446
I5
sS'UNITED'
p3447
I3
sS'THINKING'
p3448
I1
sS'CONFUSION'
p3449
I1
sS'HOSTILITY'
p3450
I0
sS'MEOW'
p3451
I10
sS'PARTNER'
p3452
I0
sS'PLUM'
p3453
I6
sS'WIND'
p3454
I7
sS'WINE'
p3455
I6
sS'EYEBROWS'
p3456
I0
sS'COP'
p3457
I3
sS'HARM'
p3458
I2
sS'UNEQUAL'
p3459
I3
sS'COW'
p3460
I10
sS'PET'
p3461
I10
sS'HARE'
p3462
I10
sS'HARD'
p3463
I0
sS'PREDATOR'
p3464
I10
sS'PEN'
p3465
I11
sS'COB'
p3466
I6
sS'COD'
p3467
I4
sS'FIST'
p3468
I2
sS'PHRASE'
p3469
I1
sS'STRAP'
p3470
I11
sS'MAKER'
p3471
I11
sS'CON'
p3472
I3
sS'SINGER'
p3473
I8
sS'WORSE'
p3474
I9
sS'CONDUCTOR'
p3475
I8
sS'TUNNEL'
p3476
I5
sS'TIGER'
p3477
I10
sS'GENIUS'
p3478
I1
sS'WORST'
p3479
I9
sS'SUBTRACTION'
p3480
I9
sS'CARDBOARD'
p3481
I1
sS'FLUFFY'
p3482
I10
sS'FAIR'
p3483
I8
sS'WAG'
p3484
I10
sS'CIGAR'
p3485
I7
sS'FACTORY'
p3486
I4
sS'TWO'
p3487
I9
sS'STUFF'
p3488
I6
sS'HOMELESS'
p3489
I4
sS'WAX'
p3490
I7
sS'FAIL'
p3491
I4
sS'GROW'
p3492
I6
sS'TRANSPLANT'
p3493
I4
sS'CRITICISM'
p3494
I0
sS'TOTAL'
p3495
I9
sS'ENERGETIC'
p3496
I5
sS'IGNORE'
p3497
I0
sS'TRACK'
p3498
I2
sS'REJECT'
p3499
I0
sS'INTERIOR'
p3500
I5
sS'TYPE'
p3501
I1
sS'TELL'
p3502
I1
sS'OVERCOME'
p3503
I4
sS'BLAZE'
p3504
I7
sS'CUTE'
p3505
I0
sS'DISSIMILAR'
p3506
I9
sS'ORGAN'
p3507
I8
sS'VIOLET'
p3508
I11
sS'STORAGE'
p3509
I5
sS'DIGGER'
p3510
I6
sS'CRIME'
p3511
I3
sS'AIM'
p3512
I2
sS'ROOMMATE'
p3513
I0
sS'VIRTUE'
p3514
I3
sS'AID'
p3515
I4
sS'SEAGULL'
p3516
I7
sS'WONDER'
p3517
I1
sS'MEAT'
p3518
I6
sS'MEANS'
p3519
I1
sS'SEVERE'
p3520
I0
sS'INTRODUCE'
p3521
I4
sS'FUMES'
p3522
I7
sS'OASIS'
p3523
I7
sS'FRUIT'
p3524
I6
sS'REBEL'
p3525
I3
sS'MEAL'
p3526
I6
sS'MEAN'
p3527
I0
sS'MORSE'
p3528
I0
sS'BROOM'
p3529
I7
sS'BROOK'
p3530
I7
sS'VOLT'
p3531
I5
sS'TARZAN'
p3532
I10
sS'PANE'
p3533
I2
sS'IN'
p3534
I5
sS'DIGEST'
p3535
I6
sS'TIMID'
p3536
I0
sS'LAUNDRY'
p3537
I7
sS'BACKPACK'
p3538
I4
sS'CHEDDAR'
p3539
I6
sS'ELEVATOR'
p3540
I5
sS'HARMFUL'
p3541
I2
sS'PROMISE'
p3542
I3
sS'ACRE'
p3543
I6
sS'VOLUNTEER'
p3544
I4
sS'SYMPTOM'
p3545
I2
sS'PARK'
p3546
I5
sS'ROBOT'
p3547
I5
sS'PART'
p3548
I9
sS'ADULTERY'
p3549
I3
sS'GIRLFRIEND'
p3550
I0
sS'GIRL'
p3551
I0
sS'FRIGHTENED'
p3552
I0
sS'PLAYING'
p3553
I8
sS'FROWN'
p3554
I0
sS'FLOUR'
p3555
I6
sS'CENT'
p3556
I4
sS'RELIGION'
p3557
I0
sS'OPENER'
p3558
I1
sS'GRANDMA'
p3559
I0
sS'CONDITIONER'
p3560
I7
sS'TONGUE'
p3561
I6
sS'MANUFACTURER'
p3562
I4
sS'POTTERY'
p3563
I6
sS'NICOTINE'
p3564
I7
sS'INEBRIATED'
p3565
I6
sS'OPERA'
p3566
I8
sS'NERVOUS'
p3567
I0
sS'CRYSTAL'
p3568
I11
sS'VACATE'
p3569
I4
sS'COMET'
p3570
I5
sS'BENEATH'
p3571
I5
sS'EVICT'
p3572
I4
sS'EAT'
p3573
I6
sS'CREDIT'
p3574
I4
sS'PRAISE'
p3575
I0
sS'CURIOUS'
p3576
I1
sS'HUMILIATE'
p3577
I0
sS'INFANT'
p3578
I0
sS'YUMMY'
p3579
I6
sS'PRACTICE'
p3580
I1
sS'FRENCH'
p3581
I6
sS'STAND'
p3582
I5
sS'FINE'
p3583
I0
sS'FIND'
p3584
I4
sS'CHLORINE'
p3585
I7
sS'SALARY'
p3586
I4
sS'ROMANTIC'
p3587
I0
sS'COLOR'
p3588
I11
sS'SPELL'
p3589
I1
sS'CASHIER'
p3590
I4
sS'IMPEDIMENT'
p3591
I2
sS'SNAKE'
p3592
I10
sS'SIDEWALK'
p3593
I5
sS'BUBBLE'
p3594
I7
sS'SHEEP'
p3595
I10
sS'EYES'
p3596
I1
sS'MEDIUM'
p3597
I9
sS'SHEET'
p3598
I11
sS'HAUGHTY'
p3599
I0
sS'JUST'
p3600
I3
sS'BOLOGNA'
p3601
I6
sS'CONSIDER'
p3602
I1
sS'GODLINESS'
p3603
I0
sS'HINGE'
p3604
I5
sS'BOYS'
p3605
I0
sS'PLACE'
p3606
I4
sS'TROMBONE'
p3607
I8
sS'PHYSIOLOGY'
p3608
I1
sS'USUAL'
p3609
I9
sS'RESTRICTION'
p3610
I3
sS'GOODS'
p3611
I4
sS'ENGAGEMENT'
p3612
I0
sS'STRIPES'
p3613
I3
sS'GRADUATE'
p3614
I1
sS'QUART'
p3615
I9
sS'NUCLEUS'
p3616
I1
sS'TYPEWRITER'
p3617
I1
sS'SUBJECT'
p3618
I1
sS'CHECKING'
p3619
I4
sS'UPSTAIRS'
p3620
I5
sS'PROGRAM'
p3621
I1
sS'OVERFLOW'
p3622
I9
sS'SILK'
p3623
I11
sS'SILL'
p3624
I2
sS'ADMISSION'
p3625
I4
sS'SHOOTING'
p3626
I2
sS'EXCEPTIONAL'
p3627
I9
sS'JEOPARDY'
p3628
I1
sS'COMMUNITY'
p3629
I3
sS'DROWN'
p3630
I7
sS'NUMBERS'
p3631
I1
sS'DAMN'
p3632
I0
sS'ASTRONOMY'
p3633
I5
sS'ODD'
p3634
I9
sS'ELK'
p3635
I10
sS'DONKEY'
p3636
I10
sS'ELM'
p3637
I6
sS'JEWEL'
p3638
I11
sS'MAXIMUM'
p3639
I9
sS'CONSTRUCTION'
p3640
I5
sS'MARSH'
p3641
I6
sS'EMOTIONAL'
p3642
I0
sS'TERRITORY'
p3643
I4
sS'MINUTES'
p3644
I5
sS'ELECTRICIAN'
p3645
I5
sS'ROMANCE'
p3646
I0
sS'LEG'
p3647
I2
sS'EARNESTNESS'
p3648
I3
sS'LEO'
p3649
I10
sS'INTENSITY'
p3650
I0
sS'EXIT'
p3651
I5
sS'BLACKBERRY'
p3652
I6
sS'LAUGH'
p3653
I0
sS'WEST'
p3654
I7
sS'PICKLES'
p3655
I6
sS'LEGS'
p3656
I2
sS'EXTREME'
p3657
I0
sS'TANTRUM'
p3658
I0
sS'ONION'
p3659
I6
sS'TWINKLE'
p3660
I5
sS'MOLECULE'
p3661
I1
sS'DOORWAY'
p3662
I5
sS'SEED'
p3663
I6
sS'PSALM'
p3664
I8
sS'MINISTER'
p3665
I0
sS'NITROGEN'
p3666
I7
sS'SEEM'
p3667
I4
sS'COMPANION'
p3668
I0
sS'SEEK'
p3669
I4
sS'EXAM'
p3670
I1
sS'COWARD'
p3671
I0
sS'THIEF'
p3672
I3
sS'CLOUDY'
p3673
I5
sS'PERSPIRE'
p3674
I6
sS'BANDAGE'
p3675
I2
sS'MOUTH'
p3676
I6
sS'STARE'
p3677
I1
sS'COPPER'
p3678
I4
sS'GIANT'
p3679
I9
sS'FIRE'
p3680
I7
sS'THERE'
p3681
I4
sS'DISEASE'
p3682
I2
sS'ICE'
p3683
I7
sS'START'
p3684
I1
sS'FIBER'
p3685
I6
sS'STARS'
p3686
I5
sS'HISTORY'
p3687
I1
sS'STOLEN'
p3688
I4
sS'PRICK'
p3689
I2
sS'BARRIER'
p3690
I5
sS'TRICYCLE'
p3691
I5
sS'FROZEN'
p3692
I7
sS'PRICE'
p3693
I4
sS'SYSTEM'
p3694
I1
sS'FOREHEAD'
p3695
I0
sS'PLATFORM'
p3696
I7
sS'ENCYCLOPEDIA'
p3697
I1
sS'MECHANIC'
p3698
I5
sS'BIZARRE'
p3699
I9
sS'CLEVER'
p3700
I3
sS'PRIM'
p3701
I5
sS'RESPIRATION'
p3702
I7
sS'WRECK'
p3703
I5
sS'FORBID'
p3704
I3
sS'HURRICANE'
p3705
I7
sS'TRICK'
p3706
I3
sS'GAIN'
p3707
I4
sS'SUPPER'
p3708
I6
sS'DENT'
p3709
I5
sS'GUYS'
p3710
I0
sS'WOMAN'
p3711
I0
sS'FORCE'
p3712
I3
sS'HOSTAGE'
p3713
I3
sS'BADGE'
p3714
I3
sS'SELDOM'
p3715
I9
sS'ACTION'
p3716
I1
sS'PASTURE'
p3717
I6
sS'CRACKERS'
p3718
I6
sS'MEDAL'
p3719
I4
sS'BODY'
p3720
I2
sS'STOPPER'
p3721
I7
sS'COMPOSE'
p3722
I1
sS'RESCUE'
p3723
I4
sS'STALLION'
p3724
I10
sS'TAPIOCA'
p3725
I6
sS'LION'
p3726
I10
sS'CARESS'
p3727
I2
sS'WARDROBE'
p3728
I11
sS'GIN'
p3729
I6
sS'DECOMPOSE'
p3730
I5
sS'CATHOLIC'
p3731
I0
sS'BACKWARD'
p3732
I4
sS'THREAD'
p3733
I11
sS'JOURNAL'
p3734
I1
sS'BOOTS'
p3735
I11
sS'INSTANCE'
p3736
I5
sS'ASSAULT'
p3737
I2
sS'CARROT'
p3738
I6
sS'BOOTH'
p3739
I8
sS'RICH'
p3740
I4
sS'UNICORN'
p3741
I3
sS'MEND'
p3742
I5
sS'RICE'
p3743
I6
sS'PRANK'
p3744
I3
sS'GREAT'
p3745
I9
sS'JURY'
p3746
I3
sS'DESTINY'
p3747
I1
sS'CAMPAIGN'
p3748
I3
sS'GUN'
p3749
I3
sS'GUM'
p3750
I6
sS'LECTURE'
p3751
I1
sS'MARKER'
p3752
I11
sS'GUY'
p3753
I0
sS'SPIRIT'
p3754
I0
sS'MARKET'
p3755
I4
sS'HUE'
p3756
I1
sS'HUG'
p3757
I0
sS'TANK'
p3758
I7
sS'HUM'
p3759
I8
sS'CONTRACT'
p3760
I4
sS'HUT'
p3761
I10
sS'UGLY'
p3762
I0
sS'VEAL'
p3763
I6
sS'CHEERLEADER'
p3764
I0
sS'POSITION'
p3765
I4
sS'SPORT'
p3766
I8
sS'VESSEL'
p3767
I7
sS'LOAD'
p3768
I4
sS'LOAF'
p3769
I5
sS'THREAT'
p3770
I0
sS'STRETCH'
p3771
I2
sS'LOAN'
p3772
I4
sS'BLADE'
p3773
I2
sS'DRIVER'
p3774
I5
sS'PROTECTION'
p3775
I3
sS'CRACK'
p3776
I2
sS'BABY'
p3777
I0
sS'DESTROY'
p3778
I5
sS'WAGE'
p3779
I4
sS'GULLY'
p3780
I7
sS'CHINESE'
p3781
I6
sS'WAITER'
p3782
I6
sS'SAIL'
p3783
I7
sS'DELIVER'
p3784
I4
sS'REMIND'
p3785
I1
sS'LASER'
p3786
I5
sS'TOIL'
p3787
I4
sS'BRASS'
p3788
I8
sS'WEAVE'
p3789
I11
sS'ARITHMETIC'
p3790
I1
sS'SHE'
p3791
I0
sS'BENT'
p3792
I2
sS'KANGAROO'
p3793
I5
sS'PHILOSOPHY'
p3794
I1
sS'MOONLIGHT'
p3795
I5
sS'STATION'
p3796
I5
sS'BEND'
p3797
I5
sS'RECOMMENDATION'
p3798
I1
sS'RED'
p3799
I11
sS'ETIQUETTE'
p3800
I0
sS'CLAM'
p3801
I6
sS'CAPACITY'
p3802
I9
sS'ALPHABET'
p3803
I1
sS'WEATHER'
p3804
I7
sS'COMMITTEE'
p3805
I9
sS'WASP'
p3806
I10
sS'KNOWN'
p3807
I1
sS'PRESIDENT'
p3808
I3
sS'LEFT'
p3809
I5
sS'LIFT'
p3810
I4
sS'STARVE'
p3811
I6
sS'SPIT'
p3812
I6
sS'JUSTICE'
p3813
I3
sS'MUSTY'
p3814
I7
sS'SATAN'
p3815
I0
sS'CIGARETTE'
p3816
I7
sS'CLOSING'
p3817
I1
sS'BATHTUB'
p3818
I7
sS'BOOKBAG'
p3819
I4
sS'COURAGEOUS'
p3820
I0
sS'CONCERT'
p3821
I8
sS'FENCE'
p3822
I5
sS'WASH'
p3823
I7
sS'SHELTER'
p3824
I3
sS'WALNUT'
p3825
I6
sS'COUGAR'
p3826
I10
sS'WRONG'
p3827
I3
sS'EMBRACE'
p3828
I0
sS'FISHING'
p3829
I7
sS'ROUGE'
p3830
I11
sS'DISAPPOINT'
p3831
I0
sS'ROUGH'
p3832
I0
sS'CHARITY'
p3833
I4
sS'SPRINKLE'
p3834
I7
sS'UNEMPLOYMENT'
p3835
I4
sS'CAR'
p3836
I5
sS'CAP'
p3837
I11
sS'TESTIFY'
p3838
I3
sS'DAILY'
p3839
I9
sS'CAT'
p3840
I10
sS'DRAFT'
p3841
I3
sS'CAN'
p3842
I6
sS'DATE'
p3843
I5
sS'CAB'
p3844
I5
sS'DOUGHNUT'
p3845
I6
sS'DATA'
p3846
I1
sS'POUNCE'
p3847
I2
sS'SCAR'
p3848
I2
sS'AIRFORCE'
p3849
I3
sS'COAT'
p3850
I11
sS'NAILS'
p3851
I2
sS'ASIA'
p3852
I3
sS'FEUD'
p3853
I0
sS'COAL'
p3854
I7
sS'AMOUNT'
p3855
I4
sS'TENSE'
p3856
I0
sS'INNOCENT'
p3857
I3
sS'INCH'
p3858
I9
sS'FURTHER'
p3859
I4
sS'DIFFICULT'
p3860
I0
sS'PORPOISE'
p3861
I7
sS'GRIP'
p3862
I4
sS'STAKE'
p3863
I2
sS'GRIT'
p3864
I6
sS'SMOKY'
p3865
I7
sS'RANCH'
p3866
I10
sS'DOCK'
p3867
I7
sS'ADORE'
p3868
I0
sS'LEAST'
p3869
I9
sS'SMOKE'
p3870
I7
sS'FAKE'
p3871
I3
sS'TUNA'
p3872
I6
sS'WEED'
p3873
I6
sS'TUNE'
p3874
I8
sS'ADORN'
p3875
I0
sS'PRODUCT'
p3876
I4
sS'MOTIONLESS'
p3877
I5
sS'I'
p3878
I0
sS'ASSOCIATE'
p3879
I4
sS'MAKE'
p3880
I1
sS'TACK'
p3881
I2
sS'ALERT'
p3882
I1
sS'RUNNING'
p3883
I2
sS'PRODUCE'
p3884
I6
sS'BANKER'
p3885
I4
sS'FRIENDS'
p3886
I0
sS'BAPTIST'
p3887
I0
sS'COUPLE'
p3888
I0
sS'LINT'
p3889
I7
sS'CRUST'
p3890
I6
sS'CRUSH'
p3891
I6
sS'MIX'
p3892
I6
sS'LINK'
p3893
I11
sS'LINE'
p3894
I5
sS'THROWUP'
p3895
I6
sS'STRAY'
p3896
I4
sS'STRAW'
p3897
I6
sS'RIBS'
p3898
I6
sS'OFFICIAL'
p3899
I8
sS'AROMA'
p3900
I6
sS'HOCKEY'
p3901
I8
sS'DELICIOUS'
p3902
I6
sS'SUIT'
p3903
I11
sS'CROAK'
p3904
I2
sS'CHECK'
p3905
I4
sS'SLICE'
p3906
I6
sS'BROAD'
p3907
I9
sS'INSECURE'
p3908
I0
sS'SLICK'
p3909
I3
sS'DIRECTOR'
p3910
I4
sS'PALM'
p3911
I7
sS'MINIMUM'
p3912
I9
sS'VICTIM'
p3913
I3
sS'POLISH'
p3914
I2
sS'PALE'
p3915
I11
sS'IGLOO'
p3916
I7
sS'BUTTER'
p3917
I6
sS'TOPPING'
p3918
I6
sS'PRESCRIPTION'
p3919
I2
sS'DAMAGE'
p3920
I5
sS'REARRANGE'
p3921
I5
sS'CROCODILE'
p3922
I7
sS'STALK'
p3923
I2
sS'SAVE'
p3924
I4
sS'ATTORNEY'
p3925
I3
sS'GOVERNMENT'
p3926
I3
sS'FINGERS'
p3927
I2
sS'BUTCHER'
p3928
I6
sS'OZONE'
p3929
I5
sS'TACKLE'
p3930
I8
sS'PRISONER'
p3931
I3
sS'BLUSH'
p3932
I11
sS'STALE'
p3933
I6
sS'DISCOVERY'
p3934
I1
sS'AFRAID'
p3935
I0
sS'BEAUTY'
p3936
I0
sS'SABER'
p3937
I2
sS'PHONY'
p3938
I3
sS'PHONE'
p3939
I8
sS'GRAZE'
p3940
I10
sS'BREEZE'
p3941
I7
sS'SINCERITY'
p3942
I3
sS'STABLE'
p3943
I5
sS'ARTICLE'
p3944
I1
sS'POUCH'
p3945
I4
sS'ORGANIZE'
p3946
I1
sS'AWKWARD'
p3947
I9
sS'CHIMPANZEE'
p3948
I10
sS'ELIMINATION'
p3949
I4
sS'INSTRUCT'
p3950
I1
sS'MOLASSES'
p3951
I6
sS'FRUSTRATION'
p3952
I0
sS'JOCK'
p3953
I2
sS'TRIBE'
p3954
I10
sS'ERODE'
p3955
I5
sS'SPARROW'
p3956
I10
sS'THROUGH'
p3957
I5
sS'TENOR'
p3958
I8
sS'PROSE'
p3959
I1
sS'HIDDEN'
p3960
I1
sS'CELEBRATION'
p3961
I6
sS'GONE'
p3962
I4
sS'CURSE'
p3963
I0
sS'COURT'
p3964
I3
sS'SYMBOL'
p3965
I1
sS'IDEA'
p3966
I1
sS'NIGHTGOWN'
p3967
I11
sS'TRAMP'
p3968
I0
sS'STALL'
p3969
I5
sS'SUSPECT'
p3970
I3
sS'URANUS'
p3971
I5
sS'BUTT'
p3972
I7
sS'LENIENT'
p3973
I0
sS'SPOUSE'
p3974
I0
sS'NOISE'
p3975
I8
sS'UNCONSCIOUS'
p3976
I1
sS'FIREMAN'
p3977
I3
sS'BITE'
p3978
I10
sS'HOTEL'
p3979
I4
sS'COMMANDER'
p3980
I3
sS'RUBBER'
p3981
I11
sS'SWITCH'
p3982
I5
sS'PUSH'
p3983
I4
sS'INJECTION'
p3984
I2
sS'CAREFUL'
p3985
I0
sS'DIVER'
p3986
I7
sS'NOISY'
p3987
I8
sS'LUGGAGE'
p3988
I4
sS'MONUMENT'
p3989
I5
sS'BAGEL'
p3990
I6
sS'MANNER'
p3991
I1
sS'CANDLE'
p3992
I5
sS'BAIT'
p3993
I7
sS'OUTCOME'
p3994
I1
sS'MATCH'
p3995
I8
sS'PADDY'
p3996
I6
sS'SEDATIVE'
p3997
I5
sS'TAME'
p3998
I10
sS'EXCITEMENT'
p3999
I8
sS'MARRIAGE'
p4000
I0
sS'DYNAMITE'
p4001
I8
sS'SPRAIN'
p4002
I2
sS'GLIDE'
p4003
I7
sS'CROOKED'
p4004
I3
sS'CREATION'
p4005
I1
sS'ROCKS'
p4006
I7
sS'IMPATIENT'
p4007
I0
sS'SINK'
p4008
I7
sS'HANDLE'
p4009
I4
sS'YEARS'
p4010
I5
sS'CAMPUS'
p4011
I9
sS'DRUM'
p4012
I8
sS'LOW'
p4013
I5
sS'ROOST'
p4014
I6
sS'IMMEDIATE'
p4015
I5
sS'CONVERSATION'
p4016
I1
sS'TEAM'
p4017
I8
sS'AFFAIR'
p4018
I0
sS'STORY'
p4019
I1
sS'SINCE'
p4020
I5
sS'BEAT'
p4021
I2
sS'COLLECT'
p4022
I4
sS'BEAR'
p4023
I10
sS'BEAM'
p4024
I5
sS'BEAN'
p4025
I6
sS'STORM'
p4026
I7
sS'BEAD'
p4027
I11
sS'STORE'
p4028
I4
sS'RESERVE'
p4029
I4
sS'VOLLEYBALL'
p4030
I8
sS'ASSUME'
p4031
I1
sS'HAIRSPRAY'
p4032
I0
sS'CONCLUSION'
p4033
I1
sS'BITTER'
p4034
I6
sS'ROLL'
p4035
I6
sS'CUSTARD'
p4036
I6
sS'ABUNDANCE'
p4037
I9
sS'DISMAY'
p4038
I0
sS'PICKET'
p4039
I3
sS'BE'
p4040
I4
sS'VOID'
p4041
I1
sS'WHISKERS'
p4042
I0
sS'UNCOMMON'
p4043
I9
sS'PUDDING'
p4044
I6
sS'PUPIL'
p4045
I1
sS'ACCUSE'
p4046
I3
sS'SCISSORS'
p4047
I2
sS'RURAL'
p4048
I3
sS'BREATHE'
p4049
I7
sS'DENIAL'
p4050
I3
sS'LICENSE'
p4051
I3
sS'DISCUSSION'
p4052
I1
sS'MILLION'
p4053
I4
sS'GENERAL'
p4054
I3
sS'SENATE'
p4055
I3
sS'RHYTHM'
p4056
I8
sS'DEFEAT'
p4057
I4
sS'MESSY'
p4058
I7
sS'THICK'
p4059
I6
sS'JUVENILE'
p4060
I0
sS'DRAIN'
p4061
I7
sS'CUPBOARD'
p4062
I5
sS'SHAMPOO'
p4063
I7
sS'EGGS'
p4064
I6
sS'DASH'
p4065
I5
sS'HAWK'
p4066
I10
sS'FRAY'
p4067
I11
sS'CONCERN'
p4068
I0
sS'TIN'
p4069
I4
sS'AWARD'
p4070
I4
sS'AWARE'
p4071
I1
sS'JOINT'
p4072
I2
sS'NEUTRAL'
p4073
I11
sS'REALESTATE'
p4074
I4
sS'BUYER'
p4075
I4
sS'TYPIST'
p4076
I1
sS'SHORT'
p4077
I9
sS'SHOPPING'
p4078
I4
sS'KNAPSACK'
p4079
I4
sS'FLAT'
p4080
I5
sS'PINCH'
p4081
I2
sS'NIGHTMARE'
p4082
I3
sS'SOOT'
p4083
I7
sS'BROTHER'
p4084
I0
sS'CONSTRUCT'
p4085
I5
sS'CRUDE'
p4086
I6
sS'SHORE'
p4087
I7
sS'WONDERFUL'
p4088
I9
sS'FRISK'
p4089
I3
sS'APPROVAL'
p4090
I0
sS'ILL'
p4091
I2
sS'MASSAGE'
p4092
I2
sS'INLET'
p4093
I7
sS'YARD'
p4094
I6
sS'JUG'
p4095
I6
sS'RESTAURANT'
p4096
I6
sS'BEING'
p4097
I2
sS'FATHER'
p4098
I0
sS'SOUL'
p4099
I0
sS'YARN'
p4100
I11
sS'SOUP'
p4101
I6
sS'BUMPS'
p4102
I2
sS'SOUR'
p4103
I6
sS'REPULSIVE'
p4104
I0
sS'BUMPY'
p4105
I5
sS'RETREAT'
p4106
I4
sS'SYMPATHETIC'
p4107
I0
sS'LIMP'
p4108
I2
sS'REPENTANCE'
p4109
I0
sS'SMUDGE'
p4110
I11
sS'SWAMP'
p4111
I7
sS'FORGET'
p4112
I1
sS'STRENGTH'
p4113
I2
sS'NEWSPAPER'
p4114
I1
sS'MINOR'
p4115
I0
sS'WEEKLY'
p4116
I1
sS'INTESTINE'
p4117
I6
sS'TOURIST'
p4118
I0
sS'MALARIA'
p4119
I2
sS'BUDGET'
p4120
I4
sS'MELT'
p4121
I7
sS'ANT'
p4122
I10
sS'AUDIENCE'
p4123
I8
sS'FIDDLE'
p4124
I8
sS'SHELF'
p4125
I5
sS'BALCONY'
p4126
I5
sS'RESULT'
p4127
I1
sS'SUMMER'
p4128
I7
sS'SHALLOW'
p4129
I7
sS'SENSITIVE'
p4130
I0
sS'AIRPORT'
p4131
I4
sS'POPCORN'
p4132
I6
sS'DISLIKE'
p4133
I0
sS'SAUCER'
p4134
I6
sS'DESPISE'
p4135
I0
sS'NOUN'
p4136
I1
sS'ARMY'
p4137
I3
sS'ARMS'
p4138
I2
sS'CABINET'
p4139
I5
sS'GOOSE'
p4140
I10
sS'GIFT'
p4141
I4
sS'SNORKEL'
p4142
I7
sS'POVERTY'
p4143
I4
sS'PHASE'
p4144
I0
sS'BIOLOGIST'
p4145
I1
sS'EXPRESSION'
p4146
I0
sS'TALK'
p4147
I1
sS'BLOW'
p4148
I8
sS'BALL'
p4149
I8
sS'HUMAN'
p4150
I10
sS'PAWN'
p4151
I4
sS'PREMISES'
p4152
I4
sS'LOCK'
p4153
I5
sS'BALD'
p4154
I0
sS'TOUCHDOWN'
p4155
I4
sS'PERMIT'
p4156
I3
sS'SLIP'
p4157
I11
sS'VOLCANO'
p4158
I7
sS'INFERNO'
p4159
I7
sS'YOURS'
p4160
I4
sS'MISTAKE'
p4161
I3
sS'EARN'
p4162
I4
sS'LABYRINTH'
p4163
I1
sS'EQUATION'
p4164
I1
sS'WRITER'
p4165
I1
sS'YESTERDAY'
p4166
I5
sS'POISON'
p4167
I2
sS'INDIAN'
p4168
I10
sS'PARADISE'
p4169
I7
sS'SOBER'
p4170
I6
sS'NASTY'
p4171
I6
sS'EARS'
p4172
I9
sS'SHUT'
p4173
I5
sS'AGENCY'
p4174
I4
sS'ENTERTAINMENT'
p4175
I8
sS'OPTIMISTIC'
p4176
I1
sS'SING'
p4177
I8
sS'SHUN'
p4178
I0
sS'GRANITE'
p4179
I5
sS'HANDSOME'
p4180
I0
sS'LITTLE'
p4181
I9
sS'CASKET'
p4182
I2
sS'FAR'
p4183
I3
sS'MOLD'
p4184
I6
sS'FAT'
p4185
I6
sS'STUB'
p4186
I2
sS'RESORT'
p4187
I7
sS'FAN'
p4188
I7
sS'STUD'
p4189
I0
sS'ROCK'
p4190
I5
sS'MARGARINE'
p4191
I6
sS'SMOG'
p4192
I7
sS'COMEDY'
p4193
I0
sS'GRIZZLY'
p4194
I0
sS'TAMPA'
p4195
I7
sS'CLOROX'
p4196
I7
sS'STYLE'
p4197
I11
sS'GOOD'
p4198
I6
sS'MUTE'
p4199
I8
sS'STAMP'
p4200
I4
sS'INK'
p4201
I11
sS'SPOT'
p4202
I11
sS'REMARK'
p4203
I1
sS'DIRTY'
p4204
I7
sS'ALLOW'
p4205
I3
sS'DESK'
p4206
I5
sS'SPHINX'
p4207
I5
sS'MELLOW'
p4208
I8
sS'RIDER'
p4209
I10
sS'PINK'
p4210
I11
sS'RAYS'
p4211
I5
sS'DARING'
p4212
I0
sS'ALUMINUM'
p4213
I4
sS'ATTENTION'
p4214
I1
sS'CREATIVITY'
p4215
I1
sS'PINE'
p4216
I6
sS'TEAR'
p4217
I11
sS'MICROSCOPE'
p4218
I1
sS'PURE'
p4219
I3
sS'WHALE'
p4220
I7
sS'BLENDER'
p4221
I6
sS'BALLERINA'
p4222
I8
sS'SALTINE'
p4223
I6
sS'REACH'
p4224
I4
sS'OAK'
p4225
I6
sS'MICROWAVE'
p4226
I6
sS'DART'
p4227
I5
sS'DARK'
p4228
I5
sS'OAR'
p4229
I7
sS'HAVE'
p4230
I4
sS'COMMUNIST'
p4231
I3
sS'ORDER'
p4232
I1
sS'DARE'
p4233
I0
sS'POKER'
p4234
I4
sS'SHORTCAKE'
p4235
I6
sS'TOUGH'
p4236
I0
sS'PIN'
p4237
I2
sS'FLIP'
p4238
I5
sS'PIG'
p4239
I6
sS'NEIGHBOR'
p4240
I3
sS'PRESENTATION'
p4241
I1
sS'RUMMY'
p4242
I6
sS'MEDICATION'
p4243
I2
sS'FRIGHT'
p4244
I3
sS'APPLIANCE'
p4245
I6
sS'FELLOW'
p4246
I0
sS'WHISKEY'
p4247
I6
sS'GROWTH'
p4248
I6
sS'UNIQUE'
p4249
I9
sS'SCRIBBLE'
p4250
I11
sS'FAME'
p4251
I4
sS'PURCHASE'
p4252
I4
sS'STEREO'
p4253
I8
sS'STRAIN'
p4254
I0
sS'AUTHORITY'
p4255
I3
sS'TRAGEDY'
p4256
I0
sS'MAID'
p4257
I4
sS'BEDROOM'
p4258
I5
sS'READY'
p4259
I1
sS'MAIL'
p4260
I4
sS'MAIN'
p4261
I7
sS'ANARCHY'
p4262
I3
sS'FRECKLE'
p4263
I11
sS'PALACE'
p4264
I3
sS'GROWN-UPS'
p4265
I0
sS'FEATHERS'
p4266
I10
sS'CHAMBER'
p4267
I3
sS'HITCHHIKE'
p4268
I5
sS'BREATH'
p4269
I7
sS'SIGNATURE'
p4270
I4
sS'INCOME'
p4271
I4
sS'ARROGANT'
p4272
I0
sS'HAPPY'
p4273
I0
sS'STINK'
p4274
I6
sS'CHEAT'
p4275
I3
sS'SCULPTURE'
p4276
I5
sS'WINNER'
p4277
I4
sS'CHEAP'
p4278
I4
sS'STING'
p4279
I10
sS'WRIST'
p4280
I2
sS'DOT'
p4281
I11
sS'AMP'
p4282
I8
sS'LILY'
p4283
I7
sS'BOULEVARD'
p4284
I5
sS'CALCULATE'
p4285
I1
sS'PARENT'
p4286
I0
sS'BOUNCE'
p4287
I5
sS'OCEAN'
p4288
I7
sS'GOODNESS'
p4289
I0
sS'TYPHOON'
p4290
I7
sS'MORON'
p4291
I0
sS'CHRISTMAS'
p4292
I6
sS'SERVANT'
p4293
I4
sS'DISTANCE'
p4294
I9
sS'CAUTIOUS'
p4295
I0
sS'PSYCHOLOGY'
p4296
I1
sS'FRONTIER'
p4297
I6
sS'NEWYORK'
p4298
I3
sS'DEFEND'
p4299
I3
sS'LOYALTY'
p4300
I3
sS'PAJAMAS'
p4301
I11
sS'HOPE'
p4302
I0
sS'INCREASE'
p4303
I9
sS'SKULL'
p4304
I2
sS'ADVANCE'
p4305
I4
sS'LOBE'
p4306
I11
sS'BATTLE'
p4307
I0
sS'COMPETE'
p4308
I8
sS'AFFECT'
p4309
I1
sS'FOOLISH'
p4310
I0
sS'SYRUP'
p4311
I6
sS'BUGLE'
p4312
I8
sS'EASE'
p4313
I0
sS'VULGAR'
p4314
I6
sS'SALE'
p4315
I4
sS'CRAFT'
p4316
I7
sS'EASY'
p4317
I0
sS'GRATE'
p4318
I6
sS'EARTH'
p4319
I5
sS'EAST'
p4320
I7
sS'SALT'
p4321
I6
sS'LAWS'
p4322
I3
sS'QUIVER'
p4323
I7
sS'SCIENTIFIC'
p4324
I1
sS'RATIONALIZE'
p4325
I1
sS'BRILLIANT'
p4326
I1
sS'UPSET'
p4327
I0
sS'TIDY'
p4328
I7
sS'CEMENT'
p4329
I5
sS'CHOICE'
p4330
I9
sS'TIDE'
p4331
I7
sS'STATEMENT'
p4332
I1
sS'POLICEMAN'
p4333
I3
sS'FANTASTIC'
p4334
I9
sS'PELT'
p4335
I2
sS'SOLDIER'
p4336
I3
sS'IDENTIFICATION'
p4337
I0
sS'WINGS'
p4338
I10
sS'FLANNEL'
p4339
I11
sS'BIBLE'
p4340
I0
sS'WAY'
p4341
I1
sS'GOLD'
p4342
I4
sS'EQUAL'
p4343
I9
sS'MOIST'
p4344
I7
sS'BLUBBER'
p4345
I7
sS'UNDERGROUND'
p4346
I5
sS'MOLTEN'
p4347
I7
sS'COOKED'
p4348
I6
sS'ASSISTANCE'
p4349
I4
sS'TANGERINE'
p4350
I6
sS'RESTROOM'
p4351
I7
sS'LIZARD'
p4352
I6
sS'ROYALTY'
p4353
I3
sS'BOUILLON'
p4354
I6
sS'ROACH'
p4355
I10
sS'CLOCKWISE'
p4356
I5
sS'FRIENDLINESS'
p4357
I0
sS'COFFEE'
p4358
I6
sS'PORTRAY'
p4359
I1
sS'AD'
p4360
I4
sS'CONFIDENT'
p4361
I0
sS'ACCELERATE'
p4362
I5
sS'UNDECIDED'
p4363
I1
sS'ATOM'
p4364
I1
sS'AX'
p4365
I2
sS'CORPORAL'
p4366
I3
sS'CONTENT'
p4367
I1
sS'CANVAS'
p4368
I11
sS'COACH'
p4369
I8
sS'FABRIC'
p4370
I11
sS'CAPTION'
p4371
I1
sS'NOTE'
p4372
I1
sS'TAKE'
p4373
I4
sS'ADVENTUROUS'
p4374
I0
sS'INFERIOR'
p4375
I9
sS'BUDDY'
p4376
I0
sS'COLESLAW'
p4377
I6
sS'ANISETTE'
p4378
I6
sS'PERFORM'
p4379
I8
sS'SCREWDRIVER'
p4380
I5
sS'STUCK'
p4381
I11
sS'FRIGID'
p4382
I7
sS'FRAGRANCE'
p4383
I6
sS'FALL'
p4384
I5
sS'APPENDAGE'
p4385
I2
sS'CAFE'
p4386
I6
sS'DROWSY'
p4387
I5
sS'CEREMONY'
p4388
I0
sS'MANY'
p4389
I9
sS'STICKER'
p4390
I2
sS'DISPROVE'
p4391
I0
sS'COBBLER'
p4392
I6
sS'DRESS'
p4393
I11
sS'HEEL'
p4394
I2
sS'INTERSTATE'
p4395
I5
sS'PHANTOM'
p4396
I3
sS'PEACH'
p4397
I6
sS'DUSK'
p4398
I5
sS'CONQUEST'
p4399
I4
sS'PEACE'
p4400
I0
sS'DUST'
p4401
I7
sS'DILEMMA'
p4402
I0
sS'MINUTE'
p4403
I5
sS'PHOTO'
p4404
I1
sS'LAB'
p4405
I1
sS'COMFORTABLE'
p4406
I5
sS'UNCLE'
p4407
I0
sS'LAY'
p4408
I5
sS'ROBE'
p4409
I11
sS'LAW'
p4410
I3
sS'LAP'
p4411
I5
sS'WAITRESS'
p4412
I6
sS'DOZEN'
p4413
I6
sS'CANAL'
p4414
I7
sS'CODE'
p4415
I1
sS'ENEMY'
p4416
I0
sS'ORNAMENT'
p4417
I6
sS'THEOREM'
p4418
I1
sS'UNIFORM'
p4419
I11
sS'VERSE'
p4420
I8
sS'ANCIENT'
p4421
I1
sS'SEAM'
p4422
I11
sS'SEAL'
p4423
I7
sS'VULNERABLE'
p4424
I0
sS'BLACKBOARD'
p4425
I1
sS'BRIEFCASE'
p4426
I1
sS'CRATER'
p4427
I5
sS'DOUGH'
p4428
I6
sS'ADVENTURE'
p4429
I4
sS'MILITARY'
p4430
I3
sS'GOLDEN'
p4431
I5
sS'SANDWICH'
p4432
I6
sS'OINTMENT'
p4433
I2
sS'MIDDLE'
p4434
I9
sS'SLANDER'
p4435
I3
sS'PARAGRAPH'
p4436
I1
sS'FIVE'
p4437
I9
sS'SLENDER'
p4438
I0
sS'REPUBLICAN'
p4439
I3
sS'SNUGGLE'
p4440
I0
sS'TENSION'
p4441
I0
sS'EXTRA'
p4442
I4
sS'MARIJUANA'
p4443
I6
sS'ELDERLY'
p4444
I0
sS'PUMP'
p4445
I5
sS'FLAKES'
p4446
I6
sS'NOTION'
p4447
I1
sS'SPADE'
p4448
I6
sS'HOSTESS'
p4449
I6
sS'CROW'
p4450
I6
sS'INCENSE'
p4451
I6
sS'HAIR'
p4452
I0
sS'CORNBEEF'
p4453
I6
sS'BAR'
p4454
I6
sS'TICK'
p4455
I10
sS'MEETING'
p4456
I4
sS'ITCH'
p4457
I2
sS'GARBAGE'
p4458
I6
sS'GENDER'
p4459
I0
sS'RESPONSE'
p4460
I1
sS'PRODUCTION'
p4461
I4
sS'WORDS'
p4462
I1
sS'WOMEN'
p4463
I0
sS'ALBUM'
p4464
I8
sS'HOSE'
p4465
I11
sS'WAIST'
p4466
I9
sS'ACKNOWLEDGE'
p4467
I1
sS'CLIMAX'
p4468
I5
sS'HORMONES'
p4469
I0
sS'SITE'
p4470
I1
sS'OUTFIT'
p4471
I11
sS'LUST'
p4472
I0
sS'TERROR'
p4473
I3
sS'HOST'
p4474
I6
sS'ABOVE'
p4475
I5
sS'OBJECTIVE'
p4476
I1
sS'CALENDAR'
p4477
I5
sS'PRESTIGE'
p4478
I4
sS'TRIUMPH'
p4479
I4
sS'MARE'
p4480
I10
sS'CONFIDENCE'
p4481
I0
sS'LIKE'
p4482
I0
sS'POSSESSION'
p4483
I4
sS'COMMUNICATION'
p4484
I1
sS'QUEEN'
p4485
I3
sS'MARK'
p4486
I11
sS'JOURNEY'
p4487
I4
sS'RADIO'
p4488
I8
sS'MARS'
p4489
I5
sS'RESERVATION'
p4490
I4
sS'MARY'
p4491
I0
sS'STRUCTURE'
p4492
I5
sS'SHINE'
p4493
I5
sS'TOY'
p4494
I0
sS'PUBLICATION'
p4495
I1
sS'ROCKET'
p4496
I5
sS'TOP'
p4497
I5
sS'TOW'
p4498
I4
sS'GREET'
p4499
I4
sS'GREEK'
p4500
I1
sS'TON'
p4501
I9
sS'BEAVER'
p4502
I10
sS'HUSKY'
p4503
I9
sS'SHINY'
p4504
I4
sS'GREED'
p4505
I4
sS'TOE'
p4506
I2
sS'THRONE'
p4507
I3
sS'HUGE'
p4508
I9
sS'VELVET'
p4509
I11
sS'BULLY'
p4510
I0
sS'BOUQUET'
p4511
I6
sS'NOSY'
p4512
I0
sS'VIOLENCE'
p4513
I3
sS'INSULT'
p4514
I0
sS'LETTUCE'
p4515
I6
sS'SLIPPERY'
p4516
I6
sS'NOSE'
p4517
I0
sS'MOTHER'
p4518
I0
sS'QUAIL'
p4519
I10
sS'SKILLET'
p4520
I6
sS'STUMBLE'
p4521
I5
sS'SLIPPERS'
p4522
I11
sS'BOUNTY'
p4523
I7
sS'MORNING'
p4524
I5
sS'PROJECT'
p4525
I1
sS'BAND'
p4526
I8
sS'BANG'
p4527
I8
sS'RECTANGLE'
p4528
I5
sS'CUPS'
p4529
I6
sS'TOTE'
p4530
I4
sS'FESTIVAL'
p4531
I8
sS'SIGNAL'
p4532
I1
sS'ETERNAL'
p4533
I5
sS'LAVA'
p4534
I7
sS'TOMB'
p4535
I2
sS'EXAMINE'
p4536
I1
sS'COMMAND'
p4537
I1
sS'GENUINE'
p4538
I3
sS'BONDAGE'
p4539
I11
sS'GRAVITY'
p4540
I5
sS'CHOIR'
p4541
I8
sS'EGO'
p4542
I0
sS'USELESS'
p4543
I6
sS'NEWYEAR'
p4544
I6
sS'EGG'
p4545
I6
sS'BEAKER'
p4546
I1
sS'RAG'
p4547
I7
sS'FAUCET'
p4548
I7
sS'ACCIDENT'
p4549
I5
sS'CENTURY'
p4550
I5
sS'ROAR'
p4551
I8
sS'RELAXED'
p4552
I5
sS'RAM'
p4553
I10
sS'RAW'
p4554
I6
sS'RAT'
p4555
I10
sS'RAP'
p4556
I8
sS'FABLE'
p4557
I1
sS'FRONT'
p4558
I4
sS'ROAD'
p4559
I5
sS'RAY'
p4560
I5
sS'PARCEL'
p4561
I4
sS'DICTIONARY'
p4562
I1
sS'SECRETIVE'
p4563
I3
sS'CURVE'
p4564
I5
sS'YOLK'
p4565
I11
sS'PRINCE'
p4566
I3
sS'FIRST'
p4567
I4
sS'CHROMOSOMES'
p4568
I1
sS'EXCEDRIN'
p4569
I2
sS'SOFT'
p4570
I0
sS'PILE'
p4571
I5
sS'EXCELLENT'
p4572
I9
sS'PLATES'
p4573
I6
sS'PILL'
p4574
I2
sS'SPEAK'
p4575
I1
sS'CHAPTER'
p4576
I1
sS'TRANSPARENT'
p4577
I1
sS'TRANSPORTATION'
p4578
I5
sS'PRODUCER'
p4579
I4
sS'SAILOR'
p4580
I7
sS'SYNAGOGUE'
p4581
I0
sS'SOCKS'
p4582
I11
sS'CONTEXT'
p4583
I1
sS'BOWLING'
p4584
I8
sS'CONVICT'
p4585
I3
sS'GOBLIN'
p4586
I3
sS'HATE'
p4587
I0
sS'CONFERENCE'
p4588
I1
sS'PULL'
p4589
I4
sS'RUSH'
p4590
I5
sS'TOENAIL'
p4591
I2
sS'EGYPT'
p4592
I3
sS'FLOW'
p4593
I7
sS'ALIVE'
p4594
I2
sS'SUBWAY'
p4595
I5
sS'BARRACUDA'
p4596
I7
sS'INERTIA'
p4597
I1
sS'RUST'
p4598
I11
sS'THIN'
p4599
I2
sS'EXCISE'
p4600
I4
sS'PLAZA'
p4601
I4
sS'UNUSED'
p4602
I6
sS'RANGE'
p4603
I2
sS'LUNG'
p4604
I7
sS'JACK'
p4605
I2
sS'CAGE'
p4606
I3
sS'CALORIE'
p4607
I6
sS'RASPBERRY'
p4608
I6
sS'TUBE'
p4609
I7
sS'METHODIST'
p4610
I0
sS'TUBA'
p4611
I8
sS'ACROBAT'
p4612
I2
sS'ARREST'
p4613
I3
sS'WIGWAM'
p4614
I10
sS'PLASMA'
p4615
I1
sS'PIE'
p4616
I6
sS'COMPONENT'
p4617
I1
sS'LEMONADE'
p4618
I6
sS'PORK'
p4619
I6
sS'SCENE'
p4620
I1
sS'SPONGE'
p4621
I7
sS'MUD'
p4622
I6
sS'MUG'
p4623
I6
sS'CURE'
p4624
I2
sS'CURB'
p4625
I5
sS'DECIDE'
p4626
I1
sS'LATHER'
p4627
I7
sS'GUEST'
p4628
I4
sS'BLOUSE'
p4629
I11
sS'WORD'
p4630
I1
sS'NUT'
p4631
I6
sS'WORK'
p4632
I4
sS'MASK'
p4633
I3
sS'WORM'
p4634
I10
sS'WORN'
p4635
I11
sS'MASH'
p4636
I6
sS'NUN'
p4637
I0
sS'SPREAD'
p4638
I6
sS'MASS'
p4639
I9
sS'EXPLANATION'
p4640
I1
sS'IMAGINE'
p4641
I1
sS'ASK'
p4642
I1
sS'ASH'
p4643
I7
sS'BEGINNING'
p4644
I1
sS'BOYFRIEND'
p4645
I0
sS'BUMBLE'
p4646
I5
sS'DENSE'
p4647
I0
sS'JEWELRY'
p4648
I11
sS'LEAGUE'
p4649
I8
sS'DUE'
p4650
I1
sS'EVACUATE'
p4651
I4
sS'ORTHODONTIST'
p4652
I2
sS'SEW'
p4653
I11
sS'CLOSE'
p4654
I5
sS'EXPENSE'
p4655
I4
sS'INTELLIGENT'
p4656
I1
sS'KINETIC'
p4657
I1
sS'BLUE'
p4658
I11
sS'IVORY'
p4659
I7
sS'TARGET'
p4660
I2
sS'TAVERN'
p4661
I6
sS'VIRGIN'
p4662
I0
sS'SERGEANT'
p4663
I3
sS'PLANETS'
p4664
I5
sS'BLUR'
p4665
I1
sS'FOLDER'
p4666
I1
sS'NARROW'
p4667
I9
sS'RAINY'
p4668
I5
sS'FIGHTER'
p4669
I5
sS'NETWORK'
p4670
I1
sS'EXTENSION'
p4671
I2
sS'OLIGARCHY'
p4672
I3
sS'ASCEND'
p4673
I5
sS'MINK'
p4674
I10
sS'SUBTLE'
p4675
I0
sS'CAVERN'
p4676
I5
sS'PATH'
p4677
I5
sS'MELODY'
p4678
I8
sS'LATCH'
p4679
I5
sS'ASCENT'
p4680
I5
sS'PRUNE'
p4681
I6
sS'GRAVY'
p4682
I6
sS'PURPLE'
p4683
I11
sS'TORCH'
p4684
I7
sS'TOSS'
p4685
I8
sS'PORT'
p4686
I7
sS'SAND'
p4687
I7
sS'EDGE'
p4688
I5
sS'STOCKING'
p4689
I11
sS'TOLL'
p4690
I4
sS'CONTINENT'
p4691
I3
sS'CELEBRATE'
p4692
I0
sS'GRILL'
p4693
I6
sS'DISGRACE'
p4694
I0
sS'POWERFUL'
p4695
I2
sS'YIELD'
p4696
I5
sS'ENDING'
p4697
I1
sS'GARLIC'
p4698
I6
sS'FORWARD'
p4699
I4
sS'YO-YO'
p4700
I8
sS'ASPIRIN'
p4701
I2
sS'CEILING'
p4702
I5
sS'EXACT'
p4703
I1
sS'ENOUGH'
p4704
I9
sS'SINKER'
p4705
I7
sS'PARKING'
p4706
I9
sS'NOTHING'
p4707
I9
sS'SUNRISE'
p4708
I5
sS'OFFICER'
p4709
I3
sS'MUSK'
p4710
I6
sS'FUNNY'
p4711
I0
sS'APOLOGY'
p4712
I0
sS'SUBTLETY'
p4713
I0
sS'SMOTHER'
p4714
I7
sS'BAGGAGE'
p4715
I4
sS'WIDE'
p4716
I9
sS'ELBOW'
p4717
I2
sS'DEPRESSION'
p4718
I0
sS'FORMAL'
p4719
I11
sS'EXPERT'
p4720
I1
sS'CAVITY'
p4721
I2
sS'GLOBE'
p4722
I5
sS'LESS'
p4723
I9
sS'BRACELET'
p4724
I11
sS'IRRITATE'
p4725
I0
sS'FRATERNITY'
p4726
I0
sS'PICK'
p4727
I9
sS'VIDEO'
p4728
I3
sS'PITY'
p4729
I0
sS'PICNIC'
p4730
I6
sS'CATASTROPHE'
p4731
I7
sS'FLOOR'
p4732
I7
sS'CHIPMUNK'
p4733
I10
sS'BOSS'
p4734
I4
sS'NAIL'
p4735
I2
sS'FLOOD'
p4736
I7
sS'FROSTING'
p4737
I6
sS'INDEPENDENT'
p4738
I0
sS'CHECKERS'
p4739
I6
sS'AWESOME'
p4740
I9
sS'SPOOL'
p4741
I11
sS'ITEM'
p4742
I4
sS'SPOON'
p4743
I6
sS'LINGERIE'
p4744
I11
sS'Q-TIPS'
p4745
I11
sS'SPOOK'
p4746
I3
sS'INTELLECT'
p4747
I1
sS'NORM'
p4748
I9
sS'ZUCCHINI'
p4749
I6
sS'CRUNCH'
p4750
I6
sS'LIGHT'
p4751
I5
sS'INITIAL'
p4752
I1
sS'DIRECT'
p4753
I1
sS'LUMP'
p4754
I2
sS'FUNGUS'
p4755
I6
sS'QUICK'
p4756
I5
sS'FORMULA'
p4757
I1
sS'ELDERS'
p4758
I0
sS'NONE'
p4759
I9
sS'DESSERT'
p4760
I6
sS'MALT'
p4761
I6
sS'DRIP'
p4762
I7
sS'LIBRARY'
p4763
I1
sS'MALL'
p4764
I4
sS'MONGOOSE'
p4765
I10
sS'PLEAD'
p4766
I4
sS'MALE'
p4767
I0
sS'SWIFT'
p4768
I5
sS'PIT'
p4769
I6
sS'FAD'
p4770
I11
sS'AMUSE'
p4771
I0
sS'KITTEN'
p4772
I10
sS'RARE'
p4773
I9
sS'MASON'
p4774
I5
sS'MONKEY'
p4775
I10
sS'ALTO'
p4776
I8
sS'DEMOLISH'
p4777
I5
sS'MOAT'
p4778
I7
sS'BEEF'
p4779
I6
sS'YEAR'
p4780
I5
sS'SUPERMARKET'
p4781
I4
sS'CREVICE'
p4782
I9
sS'SUNDAY'
p4783
I5
sS'PROTEIN'
p4784
I6
sS'BEET'
p4785
I6
sS'CORRUPT'
p4786
I3
sS'THICKET'
p4787
I10
sS'FATTENING'
p4788
I6
sS'MIDNIGHT'
p4789
I5
sS'SELFISH'
p4790
I0
sS'GRAPE'
p4791
I6
sS'HARSH'
p4792
I0
sS'TITLE'
p4793
I1
sS'JEWISH'
p4794
I0
sS'LONDON'
p4795
I3
sS'LIMB'
p4796
I2
sS'SLIDE'
p4797
I7
sS'WIMP'
p4798
I0
sS'VANITY'
p4799
I0
sS'SLOPE'
p4800
I5
sS'PERCH'
p4801
I5
sS'TONIGHT'
p4802
I5
sS'BRONZE'
p4803
I4
sS'MOTOR'
p4804
I5
sS'READER'
p4805
I1
sS'LIME'
p4806
I6
sS'FUSS'
p4807
I0
sS'SCALES'
p4808
I9
sS'FREE'
p4809
I4
sS'STANDARD'
p4810
I9
sS'DRAMA'
p4811
I8
sS'STATE'
p4812
I3
sS'FUSE'
p4813
I5
sS'BEANS'
p4814
I6
sS'ALMANAC'
p4815
I1
sS'BETWEEN'
p4816
I5
sS'STAIRS'
p4817
I5
sS'SILENCE'
p4818
I8
sS'WIDOW'
p4819
I0
sS'HORIZON'
p4820
I5
sS'STATISTICS'
p4821
I1
sS'PORCH'
p4822
I5
sS'TRAVEL'
p4823
I4
sS'BILL'
p4824
I4
sS'PUKE'
p4825
I6
sS'INFECTION'
p4826
I2
sS'GULLIBLE'
p4827
I0
sS'NURSERY'
p4828
I8
sS'PRESUME'
p4829
I1
sS'WICKER'
p4830
I5
sS'RAFT'
p4831
I7
sS'SKIRT'
p4832
I11
sS'MORE'
p4833
I9
sS'BISCUIT'
p4834
I6
sS'GRIME'
p4835
I6
sS'ABSENT'
p4836
I4
sS'MIRROR'
p4837
I1
sS'INTEGRATE'
p4838
I11
sS'KINDNESS'
p4839
I0
sS'POLLUTION'
p4840
I7
sS'RECREATION'
p4841
I8
sS'FAMILY'
p4842
I0
sS'BOAT'
p4843
I7
sS'VAGRANT'
p4844
I4
sS'LOBBY'
p4845
I3
sS'PERFECT'
p4846
I1
sS'CUSS'
p4847
I0
sS'FOOTBALL'
p4848
I8
sS'INABILITY'
p4849
I1
sS'ANALYZE'
p4850
I1
sS'CONSCIENCE'
p4851
I1
sS'ANCESTOR'
p4852
I0
sS'ART'
p4853
I1
sS'SIRLOIN'
p4854
I6
sS'SPORTS'
p4855
I8
sS'INSTRUMENT'
p4856
I8
sS'YEARN'
p4857
I4
sS'MEMORY'
p4858
I1
sS'POSSESS'
p4859
I4
sS'ARM'
p4860
I2
sS'REPAIR'
p4861
I5
sS'SWORD'
p4862
I2
sS'TOOL'
p4863
I5
sS'NIGHT'
p4864
I5
sS'TIP'
p4865
I2
sS'ATTITUDE'
p4866
I0
sS'TURNIP'
p4867
I6
sS'OMELET'
p4868
I6
sS'CITIZEN'
p4869
I3
sS'RECYCLE'
p4870
I4
sS'TIE'
p4871
I11
sS'RAILROAD'
p4872
I5
sS'DRENCH'
p4873
I7
sS'SHELL'
p4874
I7
sS'SCALLOP'
p4875
I6
sS'CAUSE'
p4876
I1
sS'PLUCK'
p4877
I10
sS'JACKET'
p4878
I11
sS'SUMMIT'
p4879
I5
sS'TURTLE'
p4880
I7
sS'FACTS'
p4881
I1
sS'CARTON'
p4882
I6
sS'HUNTING'
p4883
I2
sS'PROVE'
p4884
I1
sS'CLEAR'
p4885
I1
sS'ENVELOPE'
p4886
I4
sS'REAL'
p4887
I3
sS'FICTION'
p4888
I3
sS'PLANNING'
p4889
I1
sS'BUILD'
p4890
I5
sS'CLEAN'
p4891
I7
sS'PARTY'
p4892
I6
sS'COUCH'
p4893
I5
sS'HAUL'
p4894
I4
sS'DOUBLE'
p4895
I1
sS'VEGETABLES'
p4896
I6
sS'LATE'
p4897
I5
sS'SHIVER'
p4898
I7
sS'BIRTH'
p4899
I1
sS'ZENITH'
p4900
I5
sS'FOREIGN'
p4901
I3
sS'CHOKE'
p4902
I7
sS'ACCEPT'
p4903
I4
sS'BATH'
p4904
I7
sS'CUBE'
p4905
I5
sS'CRISP'
p4906
I6
sS'ADDICTION'
p4907
I2
sS'GLUE'
p4908
I6
sS'MATERIAL'
p4909
I11
sS'NEAT'
p4910
I7
sS'LANGUAGE'
p4911
I1
sS'ROB'
p4912
I4
sS'WEARY'
p4913
I0
sS'ROD'
p4914
I5
sS'MOTION'
p4915
I5
sS'GRANDPA'
p4916
I0
sS'SOMETHING'
p4917
I9
sS'SEASON'
p4918
I7
sS'CORNER'
p4919
I5
sS'ROW'
p4920
I7
sS'BASSINET'
p4921
I0
sS'SCIENCE'
p4922
I1
sS'FASHION'
p4923
I11
sS'TOMBSTONE'
p4924
I2
sS'SHEETS'
p4925
I11
sS'INSTINCT'
p4926
I1
sS'QUARREL'
p4927
I0
sS'FORESIGHT'
p4928
I1
sS'LAUNCH'
p4929
I5
sS'UP'
p4930
I5
sS'REMOVE'
p4931
I4
sS'PEROXIDE'
p4932
I2
sS'WINDOW'
p4933
I1
sS'COMPACT'
p4934
I9
sS'LISTEN'
p4935
I8
sS'OPTION'
p4936
I9
sS'DEPUTY'
p4937
I3
sS'FURY'
p4938
I0
sS'FINGERNAIL'
p4939
I2
sS'MODERN'
p4940
I1
sS'CROSS'
p4941
I0
sS'PAPERCLIP'
p4942
I11
sS'REPRIMAND'
p4943
I3
sS'CONSTANT'
p4944
I5
sS'MODEL'
p4945
I0
sS'BRITANNICA'
p4946
I1
sS'TALE'
p4947
I1
sS'VOCABULARY'
p4948
I1
sS'INTIMATE'
p4949
I0
sS'REPLACE'
p4950
I4
sS'DIAGRAM'
p4951
I1
sS'BETRAY'
p4952
I3
sS'TOUCH'
p4953
I2
sS'TRAUMA'
p4954
I2
sS'SCHEME'
p4955
I1
sS'FEE'
p4956
I4
sS'TOWEL'
p4957
I7
sS'RACQUETBALL'
p4958
I8
sS'WEAK'
p4959
I0
sS'PEAS'
p4960
I6
sS'FEW'
p4961
I9
sS'WEAR'
p4962
I11
sS'TALL'
p4963
I9
sS'VAULT'
p4964
I5
sS'TOWER'
p4965
I5
sS'IMITATE'
p4966
I0
sS'ISLAND'
p4967
I7
sS'ANALYSIS'
p4968
I1
sS'FAILURE'
p4969
I4
sS'WIT'
p4970
I3
sS'BROKE'
p4971
I4
sS'PLASTER'
p4972
I5
sS'ETHICS'
p4973
I1
sS'BREAKABLE'
p4974
I6
sS'HELMET'
p4975
I3
sS'GIVEUP'
p4976
I4
sS'DAGGER'
p4977
I2
sS'ADULTS'
p4978
I0
sS'COLONEL'
p4979
I3
sS'CIRCUS'
p4980
I8
sS'DRIVE'
p4981
I5
sS'AXON'
p4982
I1
sS'DOUBT'
p4983
I1
sS'NEWS'
p4984
I1
sS'MARINE'
p4985
I7
sS'BACTERIA'
p4986
I6
sS'RIOT'
p4987
I3
sS'RULES'
p4988
I1
sS'RULER'
p4989
I3
sS'CO-PILOT'
p4990
I5
sS'EARTHQUAKE'
p4991
I7
sS'WALLET'
p4992
I4
sS'ENTERTAIN'
p4993
I8
sS'FOREST'
p4994
I10
sS'WITNESS'
p4995
I3
sS'PHYSICIAN'
p4996
I2
sS'PLAY'
p4997
I8
sS'SLIM'
p4998
I2
sS'BARTER'
p4999
I4
sS'SPACE'
p5000
I5
sS'SCOLD'
p5001
I3
sS'COKE'
p5002
I6
sS'FBI'
p5003
I3
sS'CANDY'
p5004
I6
sS'TRUSTWORTHY'
p5005
I3
sS'MOST'
p5006
I9
sS'INSECT'
p5007
I10
sS'COMEDIAN'
p5008
I0
sS'PLAN'
p5009
I1
sS'MOSS'
p5010
I6
sS'VOTE'
p5011
I3
sS'LOCAL'
p5012
I3
sS'RELISH'
p5013
I6
sS'SELL'
p5014
I4
sS'AMATEUR'
p5015
I8
sS'DRAWER'
p5016
I5
sS'SELF'
p5017
I0
sS'THROW'
p5018
I8
s.